(dp1
Vecg
p2
(dp3
Vfiltering
p4
(dp5
Vflat
p6
(lp7
Vexact
p8
asVend
p9
(lp10
Vexact
p11
asVstart
p12
(lp13
Vexact
p14
asVdatatype
p15
(lp16
Vexact
p17
aVin
p18
asVtimestamp
p19
(lp20
Vrange
p21
aVgt
p22
aVgte
p23
aVlt
p24
aVlte
p25
asVno_timestamps
p26
(lp27
Vexact
p28
asVrecord
p29
(lp30
Vexact
p31
aVin
p32
asVrange
p33
(lp34
Vexact
p35
aVin
p36
asVuser
p37
(lp38
Vexact
p39
aVin
p40
asVmax_values
p41
(lp42
Vexact
p43
assS'name'
p44
g2
sVallowed_detail_http_methods
p45
(lp46
sVfields
p47
(dp48
g6
(dp49
Vnullable
p50
I00
sVdefault
p51
VNo default provided.
p52
sVreadonly
p53
I00
sVblank
p54
I00
sVhelp_text
p55
V__nodoc__
p56
sVunique
p57
I00
sVtype
p58
Vinteger
p59
ssg9
(dp60
g50
I00
sg51
VNo default provided.
p61
sg53
I00
sg54
I00
sg55
V__nodoc__
p62
sg57
I00
sg58
Vinteger
p63
ssg12
(dp64
g50
I00
sg51
VNo default provided.
p65
sg53
I00
sg54
I00
sg55
V__nodoc__
p66
sg57
I00
sg58
Vinteger
p67
ssg15
(dp68
Vrelated_type
p69
Vto_one
p70
sg50
I00
sg51
VNo default provided.
p71
sg53
I00
sg54
I01
sg55
V__nodoc__
p72
sg57
I00
sg58
Vrelated
p73
ssg19
(dp74
g50
I00
sg51
VNo default provided.
p75
sg53
I00
sg54
I00
sg55
V__nodoc__
p76
sg57
I00
sg58
Vinteger
p77
ssg26
(dp78
g50
I00
sg51
VNo default provided.
p79
sg53
I00
sg54
I00
sg55
V__nodoc__
p80
sg57
I00
sg58
Vinteger
p81
ssg29
(dp82
g69
Vto_one
p83
sg50
I01
sg51
VNo default provided.
p84
sg53
I00
sg54
I01
sg55
V__nodoc__
p85
sg57
I00
sg58
Vrelated
p86
ssg33
(dp87
g69
Vto_one
p88
sg50
I00
sg51
VNo default provided.
p89
sg53
I00
sg54
I00
sg55
V__nodoc__
p90
sg57
I00
sg58
Vrelated
p91
ssg37
(dp92
g69
Vto_one
p93
sg50
I00
sg51
VNo default provided.
p94
sg53
I00
sg54
I00
sg55
V__nodoc__
p95
sg57
I00
sg58
Vrelated
p96
ssg41
(dp97
g50
I00
sg51
VNo default provided.
p98
sg53
I00
sg54
I00
sg55
V__nodoc__
p99
sg57
I00
sg58
Vinteger
p100
sssS'list_endpoint'
p101
V/api/v1/ecg/
p102
sVdefault_format
p103
Vapplication/json
p104
sVdefault_limit
p105
I20
sVallowed_list_http_methods
p106
(lp107
Vget
p108
assVheartrate
p109
(dp110
Vfiltering
p111
(dp112
Vflat
p113
(lp114
Vexact
p115
asVend
p116
(lp117
Vexact
p118
asVstart
p119
(lp120
Vexact
p121
asVdatatype
p122
(lp123
Vexact
p124
aVin
p125
asVtimestamp
p126
(lp127
Vrange
p128
aVgt
p129
aVgte
p130
aVlt
p131
aVlte
p132
asVno_timestamps
p133
(lp134
Vexact
p135
asVrecord
p136
(lp137
Vexact
p138
aVin
p139
asVrange
p140
(lp141
Vexact
p142
aVin
p143
asVuser
p144
(lp145
Vexact
p146
aVin
p147
asVmax_values
p148
(lp149
Vexact
p150
assg44
g109
sVallowed_detail_http_methods
p151
(lp152
sVfields
p153
(dp154
g113
(dp155
Vnullable
p156
I00
sVdefault
p157
VNo default provided.
p158
sVreadonly
p159
I00
sVblank
p160
I00
sVhelp_text
p161
V__nodoc__
p162
sVunique
p163
I00
sVtype
p164
Vinteger
p165
ssg116
(dp166
g156
I00
sg157
VNo default provided.
p167
sg159
I00
sg160
I00
sg161
V__nodoc__
p168
sg163
I00
sg164
Vinteger
p169
ssg119
(dp170
g156
I00
sg157
VNo default provided.
p171
sg159
I00
sg160
I00
sg161
V__nodoc__
p172
sg163
I00
sg164
Vinteger
p173
ssg122
(dp174
Vrelated_type
p175
Vto_one
p176
sg156
I00
sg157
VNo default provided.
p177
sg159
I00
sg160
I01
sg161
V__nodoc__
p178
sg163
I00
sg164
Vrelated
p179
ssg126
(dp180
g156
I00
sg157
VNo default provided.
p181
sg159
I00
sg160
I00
sg161
V__nodoc__
p182
sg163
I00
sg164
Vinteger
p183
ssg133
(dp184
g156
I00
sg157
VNo default provided.
p185
sg159
I00
sg160
I00
sg161
V__nodoc__
p186
sg163
I00
sg164
Vinteger
p187
ssg136
(dp188
g175
Vto_one
p189
sg156
I01
sg157
VNo default provided.
p190
sg159
I00
sg160
I01
sg161
V__nodoc__
p191
sg163
I00
sg164
Vrelated
p192
ssg140
(dp193
g175
Vto_one
p194
sg156
I00
sg157
VNo default provided.
p195
sg159
I00
sg160
I00
sg161
V__nodoc__
p196
sg163
I00
sg164
Vrelated
p197
ssg144
(dp198
g175
Vto_one
p199
sg156
I00
sg157
VNo default provided.
p200
sg159
I00
sg160
I00
sg161
V__nodoc__
p201
sg163
I00
sg164
Vrelated
p202
ssg148
(dp203
g156
I00
sg157
VNo default provided.
p204
sg159
I00
sg160
I00
sg161
V__nodoc__
p205
sg163
I00
sg164
Vinteger
p206
sssg101
V/api/v1/heartrate/
p207
sVdefault_format
p208
Vapplication/json
p209
sVdefault_limit
p210
I20
sVallowed_list_http_methods
p211
(lp212
Vget
p213
assVppg
p214
(dp215
Vfiltering
p216
(dp217
Vflat
p218
(lp219
Vexact
p220
asVend
p221
(lp222
Vexact
p223
asVstart
p224
(lp225
Vexact
p226
asVdatatype
p227
(lp228
Vexact
p229
aVin
p230
asVtimestamp
p231
(lp232
Vrange
p233
aVgt
p234
aVgte
p235
aVlt
p236
aVlte
p237
asVno_timestamps
p238
(lp239
Vexact
p240
asVrecord
p241
(lp242
Vexact
p243
aVin
p244
asVrange
p245
(lp246
Vexact
p247
aVin
p248
asVuser
p249
(lp250
Vexact
p251
aVin
p252
asVmax_values
p253
(lp254
Vexact
p255
assg44
g214
sVallowed_detail_http_methods
p256
(lp257
sVfields
p258
(dp259
g218
(dp260
Vnullable
p261
I00
sVdefault
p262
VNo default provided.
p263
sVreadonly
p264
I00
sVblank
p265
I00
sVhelp_text
p266
V__nodoc__
p267
sVunique
p268
I00
sVtype
p269
Vinteger
p270
ssg221
(dp271
g261
I00
sg262
VNo default provided.
p272
sg264
I00
sg265
I00
sg266
V__nodoc__
p273
sg268
I00
sg269
Vinteger
p274
ssg224
(dp275
g261
I00
sg262
VNo default provided.
p276
sg264
I00
sg265
I00
sg266
V__nodoc__
p277
sg268
I00
sg269
Vinteger
p278
ssg227
(dp279
Vrelated_type
p280
Vto_one
p281
sg261
I00
sg262
VNo default provided.
p282
sg264
I00
sg265
I01
sg266
V__nodoc__
p283
sg268
I00
sg269
Vrelated
p284
ssg231
(dp285
g261
I00
sg262
VNo default provided.
p286
sg264
I00
sg265
I00
sg266
V__nodoc__
p287
sg268
I00
sg269
Vinteger
p288
ssg238
(dp289
g261
I00
sg262
VNo default provided.
p290
sg264
I00
sg265
I00
sg266
V__nodoc__
p291
sg268
I00
sg269
Vinteger
p292
ssg241
(dp293
g280
Vto_one
p294
sg261
I01
sg262
VNo default provided.
p295
sg264
I00
sg265
I01
sg266
V__nodoc__
p296
sg268
I00
sg269
Vrelated
p297
ssg245
(dp298
g280
Vto_one
p299
sg261
I00
sg262
VNo default provided.
p300
sg264
I00
sg265
I00
sg266
V__nodoc__
p301
sg268
I00
sg269
Vrelated
p302
ssg249
(dp303
g280
Vto_one
p304
sg261
I00
sg262
VNo default provided.
p305
sg264
I00
sg265
I00
sg266
V__nodoc__
p306
sg268
I00
sg269
Vrelated
p307
ssg253
(dp308
g261
I00
sg262
VNo default provided.
p309
sg264
I00
sg265
I00
sg266
V__nodoc__
p310
sg268
I00
sg269
Vinteger
p311
sssg101
V/api/v1/ppg/
p312
sVdefault_format
p313
Vapplication/json
p314
sVdefault_limit
p315
I20
sVallowed_list_http_methods
p316
(lp317
Vget
p318
assVspo2status
p319
(dp320
Vfiltering
p321
(dp322
Vflat
p323
(lp324
Vexact
p325
asVend
p326
(lp327
Vexact
p328
asVstart
p329
(lp330
Vexact
p331
asVdatatype
p332
(lp333
Vexact
p334
aVin
p335
asVtimestamp
p336
(lp337
Vrange
p338
aVgt
p339
aVgte
p340
aVlt
p341
aVlte
p342
asVno_timestamps
p343
(lp344
Vexact
p345
asVrecord
p346
(lp347
Vexact
p348
aVin
p349
asVrange
p350
(lp351
Vexact
p352
aVin
p353
asVuser
p354
(lp355
Vexact
p356
aVin
p357
asVmax_values
p358
(lp359
Vexact
p360
assg44
g319
sVallowed_detail_http_methods
p361
(lp362
sVfields
p363
(dp364
g323
(dp365
Vnullable
p366
I00
sVdefault
p367
VNo default provided.
p368
sVreadonly
p369
I00
sVblank
p370
I00
sVhelp_text
p371
V__nodoc__
p372
sVunique
p373
I00
sVtype
p374
Vinteger
p375
ssg326
(dp376
g366
I00
sg367
VNo default provided.
p377
sg369
I00
sg370
I00
sg371
V__nodoc__
p378
sg373
I00
sg374
Vinteger
p379
ssg329
(dp380
g366
I00
sg367
VNo default provided.
p381
sg369
I00
sg370
I00
sg371
V__nodoc__
p382
sg373
I00
sg374
Vinteger
p383
ssg332
(dp384
Vrelated_type
p385
Vto_one
p386
sg366
I00
sg367
VNo default provided.
p387
sg369
I00
sg370
I01
sg371
V__nodoc__
p388
sg373
I00
sg374
Vrelated
p389
ssg336
(dp390
g366
I00
sg367
VNo default provided.
p391
sg369
I00
sg370
I00
sg371
V__nodoc__
p392
sg373
I00
sg374
Vinteger
p393
ssg343
(dp394
g366
I00
sg367
VNo default provided.
p395
sg369
I00
sg370
I00
sg371
V__nodoc__
p396
sg373
I00
sg374
Vinteger
p397
ssg346
(dp398
g385
Vto_one
p399
sg366
I01
sg367
VNo default provided.
p400
sg369
I00
sg370
I01
sg371
V__nodoc__
p401
sg373
I00
sg374
Vrelated
p402
ssg350
(dp403
g385
Vto_one
p404
sg366
I00
sg367
VNo default provided.
p405
sg369
I00
sg370
I00
sg371
V__nodoc__
p406
sg373
I00
sg374
Vrelated
p407
ssg354
(dp408
g385
Vto_one
p409
sg366
I00
sg367
VNo default provided.
p410
sg369
I00
sg370
I00
sg371
V__nodoc__
p411
sg373
I00
sg374
Vrelated
p412
ssg358
(dp413
g366
I00
sg367
VNo default provided.
p414
sg369
I00
sg370
I00
sg371
V__nodoc__
p415
sg373
I00
sg374
Vinteger
p416
sssg101
V/api/v1/spo2status/
p417
sVdefault_format
p418
Vapplication/json
p419
sVdefault_limit
p420
I20
sVallowed_list_http_methods
p421
(lp422
Vget
p423
assVpohr
p424
(dp425
Vfiltering
p426
(dp427
Vflat
p428
(lp429
Vexact
p430
asVend
p431
(lp432
Vexact
p433
asVstart
p434
(lp435
Vexact
p436
asVdatatype
p437
(lp438
Vexact
p439
aVin
p440
asVtimestamp
p441
(lp442
Vrange
p443
aVgt
p444
aVgte
p445
aVlt
p446
aVlte
p447
asVno_timestamps
p448
(lp449
Vexact
p450
asVrecord
p451
(lp452
Vexact
p453
aVin
p454
asVrange
p455
(lp456
Vexact
p457
aVin
p458
asVuser
p459
(lp460
Vexact
p461
aVin
p462
asVmax_values
p463
(lp464
Vexact
p465
assg44
g424
sVallowed_detail_http_methods
p466
(lp467
sVfields
p468
(dp469
g428
(dp470
Vnullable
p471
I00
sVdefault
p472
VNo default provided.
p473
sVreadonly
p474
I00
sVblank
p475
I00
sVhelp_text
p476
V__nodoc__
p477
sVunique
p478
I00
sVtype
p479
Vinteger
p480
ssg431
(dp481
g471
I00
sg472
VNo default provided.
p482
sg474
I00
sg475
I00
sg476
V__nodoc__
p483
sg478
I00
sg479
Vinteger
p484
ssg434
(dp485
g471
I00
sg472
VNo default provided.
p486
sg474
I00
sg475
I00
sg476
V__nodoc__
p487
sg478
I00
sg479
Vinteger
p488
ssg437
(dp489
Vrelated_type
p490
Vto_one
p491
sg471
I00
sg472
VNo default provided.
p492
sg474
I00
sg475
I01
sg476
V__nodoc__
p493
sg478
I00
sg479
Vrelated
p494
ssg441
(dp495
g471
I00
sg472
VNo default provided.
p496
sg474
I00
sg475
I00
sg476
V__nodoc__
p497
sg478
I00
sg479
Vinteger
p498
ssg448
(dp499
g471
I00
sg472
VNo default provided.
p500
sg474
I00
sg475
I00
sg476
V__nodoc__
p501
sg478
I00
sg479
Vinteger
p502
ssg451
(dp503
g490
Vto_one
p504
sg471
I01
sg472
VNo default provided.
p505
sg474
I00
sg475
I01
sg476
V__nodoc__
p506
sg478
I00
sg479
Vrelated
p507
ssg455
(dp508
g490
Vto_one
p509
sg471
I00
sg472
VNo default provided.
p510
sg474
I00
sg475
I00
sg476
V__nodoc__
p511
sg478
I00
sg479
Vrelated
p512
ssg459
(dp513
g490
Vto_one
p514
sg471
I00
sg472
VNo default provided.
p515
sg474
I00
sg475
I00
sg476
V__nodoc__
p516
sg478
I00
sg479
Vrelated
p517
ssg463
(dp518
g471
I00
sg472
VNo default provided.
p519
sg474
I00
sg475
I00
sg476
V__nodoc__
p520
sg478
I00
sg479
Vinteger
p521
sssg101
V/api/v1/pohr/
p522
sVdefault_format
p523
Vapplication/json
p524
sVdefault_limit
p525
I20
sVallowed_list_http_methods
p526
(lp527
Vget
p528
assVmetric
p529
(dp530
g44
g529
sVallowed_detail_http_methods
p531
(lp532
Vget
p533
aVput
p534
aVpatch
p535
aVdelete
p536
asVfields
p537
(dp538
Vtitle
p539
(dp540
Vnullable
p541
I00
sVdefault
p542
V
sVreadonly
p543
I00
sVblank
p544
I01
sVhelp_text
p545
VUnicode string data. Ex: "Hello World"
p546
sVunique
p547
I00
sVtype
p548
Vstring
p549
ssVname
p550
(dp551
g541
I00
sg542
VNo default provided.
p552
sg543
I00
sg544
I00
sg545
VUnicode string data. Ex: "Hello World"
p553
sg547
I01
sg548
Vstring
p554
ssVunit
p555
(dp556
Vrelated_type
p557
Vto_one
p558
sg541
I01
sg542
VNo default provided.
p559
sg543
I00
sg544
I00
sg545
V__nodoc__
p560
sg547
I00
sg548
Vrelated
p561
ssVresource_uri
p562
(dp563
g541
I00
sg542
VNo default provided.
p564
sg543
I01
sg544
I00
sg545
VThe unique URI where the object resides.
p565
sg547
I00
sg548
Vstring
p566
sssg101
V/api/v1/metric/
p567
sVdefault_format
p568
Vapplication/json
p569
sVdefault_limit
p570
I20
sVallowed_list_http_methods
p571
(lp572
Vget
p573
aVput
p574
aVpost
p575
aVpatch
p576
assVactivityattribute
p577
(dp578
g44
g577
sVallowed_detail_http_methods
p579
(lp580
Vget
p581
aVput
p582
aVpatch
p583
aVdelete
p584
asVfields
p585
(dp586
Vattrtype
p587
(dp588
Vnullable
p589
I00
sVdefault
p590
Vuser
p591
sVreadonly
p592
I00
sVblank
p593
I01
sVhelp_text
p594
VUnicode string data. Ex: "Hello World"
p595
sVunique
p596
I00
sVtype
p597
Vstring
p598
ssVname
p599
(dp600
g589
I00
sg590
V
sg592
I00
sg593
I00
sg594
VUnicode string data. Ex: "Hello World"
p601
sg596
I00
sg597
Vstring
p602
ssVactivitytype
p603
(dp604
Vrelated_type
p605
Vto_one
p606
sg589
I00
sg590
VNo default provided.
p607
sg592
I00
sg593
I00
sg594
VA reference to [:r:activitytype].  Maybe specified by URI or ID.  Using a URI is recommended.
p608
sg596
I00
sg597
Vrelated
p609
ssVid
p610
(dp611
g589
I00
sg590
VNo default provided.
p612
sg592
I01
sg593
I00
sg594
VThe primary key for this resource. Integer data. Ex: 2673
p613
sg596
I01
sg597
Vinteger
p614
ssVunit
p615
(dp616
g605
Vto_one
p617
sg589
I01
sg590
VNo default provided.
p618
sg592
I00
sg593
I01
sg594
VA reference to [:r:unit].  Maybe specified by URI or ID.  Using a URI is recommended.
p619
sg596
I00
sg597
Vrelated
p620
ssVresource_uri
p621
(dp622
g589
I00
sg590
VNo default provided.
p623
sg592
I01
sg593
I00
sg594
VThe unique URI where the object resides.
p624
sg596
I00
sg597
Vstring
p625
sssg101
V/api/v1/activityattribute/
p626
sVdefault_format
p627
Vapplication/json
p628
sVdefault_limit
p629
I20
sVallowed_list_http_methods
p630
(lp631
Vget
p632
aVpost
p633
aVpatch
p634
assVsystolicpressure
p635
(dp636
Vfiltering
p637
(dp638
Vflat
p639
(lp640
Vexact
p641
asVend
p642
(lp643
Vexact
p644
asVstart
p645
(lp646
Vexact
p647
asVdatatype
p648
(lp649
Vexact
p650
aVin
p651
asVtimestamp
p652
(lp653
Vrange
p654
aVgt
p655
aVgte
p656
aVlt
p657
aVlte
p658
asVno_timestamps
p659
(lp660
Vexact
p661
asVrecord
p662
(lp663
Vexact
p664
aVin
p665
asVrange
p666
(lp667
Vexact
p668
aVin
p669
asVuser
p670
(lp671
Vexact
p672
aVin
p673
asVmax_values
p674
(lp675
Vexact
p676
assg44
g635
sVallowed_detail_http_methods
p677
(lp678
sVfields
p679
(dp680
g639
(dp681
Vnullable
p682
I00
sVdefault
p683
VNo default provided.
p684
sVreadonly
p685
I00
sVblank
p686
I00
sVhelp_text
p687
V__nodoc__
p688
sVunique
p689
I00
sVtype
p690
Vinteger
p691
ssg642
(dp692
g682
I00
sg683
VNo default provided.
p693
sg685
I00
sg686
I00
sg687
V__nodoc__
p694
sg689
I00
sg690
Vinteger
p695
ssg645
(dp696
g682
I00
sg683
VNo default provided.
p697
sg685
I00
sg686
I00
sg687
V__nodoc__
p698
sg689
I00
sg690
Vinteger
p699
ssg648
(dp700
Vrelated_type
p701
Vto_one
p702
sg682
I00
sg683
VNo default provided.
p703
sg685
I00
sg686
I01
sg687
V__nodoc__
p704
sg689
I00
sg690
Vrelated
p705
ssg652
(dp706
g682
I00
sg683
VNo default provided.
p707
sg685
I00
sg686
I00
sg687
V__nodoc__
p708
sg689
I00
sg690
Vinteger
p709
ssg659
(dp710
g682
I00
sg683
VNo default provided.
p711
sg685
I00
sg686
I00
sg687
V__nodoc__
p712
sg689
I00
sg690
Vinteger
p713
ssg662
(dp714
g701
Vto_one
p715
sg682
I01
sg683
VNo default provided.
p716
sg685
I00
sg686
I01
sg687
V__nodoc__
p717
sg689
I00
sg690
Vrelated
p718
ssg666
(dp719
g701
Vto_one
p720
sg682
I00
sg683
VNo default provided.
p721
sg685
I00
sg686
I00
sg687
V__nodoc__
p722
sg689
I00
sg690
Vrelated
p723
ssg670
(dp724
g701
Vto_one
p725
sg682
I00
sg683
VNo default provided.
p726
sg685
I00
sg686
I00
sg687
V__nodoc__
p727
sg689
I00
sg690
Vrelated
p728
ssg674
(dp729
g682
I00
sg683
VNo default provided.
p730
sg685
I00
sg686
I00
sg687
V__nodoc__
p731
sg689
I00
sg690
Vinteger
p732
sssg101
V/api/v1/systolicpressure/
p733
sVdefault_format
p734
Vapplication/json
p735
sVdefault_limit
p736
I20
sVallowed_list_http_methods
p737
(lp738
Vget
p739
assVbreathingrate
p740
(dp741
Vfiltering
p742
(dp743
Vflat
p744
(lp745
Vexact
p746
asVend
p747
(lp748
Vexact
p749
asVstart
p750
(lp751
Vexact
p752
asVdatatype
p753
(lp754
Vexact
p755
aVin
p756
asVtimestamp
p757
(lp758
Vrange
p759
aVgt
p760
aVgte
p761
aVlt
p762
aVlte
p763
asVno_timestamps
p764
(lp765
Vexact
p766
asVrecord
p767
(lp768
Vexact
p769
aVin
p770
asVrange
p771
(lp772
Vexact
p773
aVin
p774
asVuser
p775
(lp776
Vexact
p777
aVin
p778
asVmax_values
p779
(lp780
Vexact
p781
assg44
g740
sVallowed_detail_http_methods
p782
(lp783
sVfields
p784
(dp785
g744
(dp786
Vnullable
p787
I00
sVdefault
p788
VNo default provided.
p789
sVreadonly
p790
I00
sVblank
p791
I00
sVhelp_text
p792
V__nodoc__
p793
sVunique
p794
I00
sVtype
p795
Vinteger
p796
ssg747
(dp797
g787
I00
sg788
VNo default provided.
p798
sg790
I00
sg791
I00
sg792
V__nodoc__
p799
sg794
I00
sg795
Vinteger
p800
ssg750
(dp801
g787
I00
sg788
VNo default provided.
p802
sg790
I00
sg791
I00
sg792
V__nodoc__
p803
sg794
I00
sg795
Vinteger
p804
ssg753
(dp805
Vrelated_type
p806
Vto_one
p807
sg787
I00
sg788
VNo default provided.
p808
sg790
I00
sg791
I01
sg792
V__nodoc__
p809
sg794
I00
sg795
Vrelated
p810
ssg757
(dp811
g787
I00
sg788
VNo default provided.
p812
sg790
I00
sg791
I00
sg792
V__nodoc__
p813
sg794
I00
sg795
Vinteger
p814
ssg764
(dp815
g787
I00
sg788
VNo default provided.
p816
sg790
I00
sg791
I00
sg792
V__nodoc__
p817
sg794
I00
sg795
Vinteger
p818
ssg767
(dp819
g806
Vto_one
p820
sg787
I01
sg788
VNo default provided.
p821
sg790
I00
sg791
I01
sg792
V__nodoc__
p822
sg794
I00
sg795
Vrelated
p823
ssg771
(dp824
g806
Vto_one
p825
sg787
I00
sg788
VNo default provided.
p826
sg790
I00
sg791
I00
sg792
V__nodoc__
p827
sg794
I00
sg795
Vrelated
p828
ssg775
(dp829
g806
Vto_one
p830
sg787
I00
sg788
VNo default provided.
p831
sg790
I00
sg791
I00
sg792
V__nodoc__
p832
sg794
I00
sg795
Vrelated
p833
ssg779
(dp834
g787
I00
sg788
VNo default provided.
p835
sg790
I00
sg791
I00
sg792
V__nodoc__
p836
sg794
I00
sg795
Vinteger
p837
sssg101
V/api/v1/breathingrate/
p838
sVdefault_format
p839
Vapplication/json
p840
sVdefault_limit
p841
I20
sVallowed_list_http_methods
p842
(lp843
Vget
p844
assVdevice
p845
(dp846
Vfiltering
p847
(dp848
Vdeviceid
p849
(lp850
Vexact
p851
assg44
g845
sVallowed_detail_http_methods
p852
(lp853
Vget
p854
asVfields
p855
(dp856
Vuser
p857
(dp858
Vrelated_type
p859
Vto_one
p860
sVnullable
p861
I00
sVdefault
p862
VNo default provided.
p863
sVreadonly
p864
I00
sVblank
p865
I00
sVhelp_text
p866
VRequired to save but is not returned afterwards.
p867
sVunique
p868
I00
sVtype
p869
Vrelated
p870
ssg849
(dp871
g861
I00
sg862
VNo default provided.
p872
sg864
I01
sg865
I00
sg866
VThe primary key for this resource. Hexoskin device serial number.
p873
sg868
I01
sg869
Vstring
p874
ssVresource_uri
p875
(dp876
g861
I00
sg862
VNo default provided.
p877
sg864
I01
sg865
I00
sg866
VThe unique URI where the object resides.
p878
sg868
I00
sg869
Vstring
p879
sssg101
V/api/v1/device/
p880
sVdefault_format
p881
Vapplication/json
p882
sVdefault_limit
p883
I20
sVallowed_list_http_methods
p884
(lp885
Vget
p886
assVqrs
p887
(dp888
Vfiltering
p889
(dp890
Vflat
p891
(lp892
Vexact
p893
asVend
p894
(lp895
Vexact
p896
asVstart
p897
(lp898
Vexact
p899
asVdatatype
p900
(lp901
Vexact
p902
aVin
p903
asVtimestamp
p904
(lp905
Vrange
p906
aVgt
p907
aVgte
p908
aVlt
p909
aVlte
p910
asVno_timestamps
p911
(lp912
Vexact
p913
asVrecord
p914
(lp915
Vexact
p916
aVin
p917
asVrange
p918
(lp919
Vexact
p920
aVin
p921
asVuser
p922
(lp923
Vexact
p924
aVin
p925
asVmax_values
p926
(lp927
Vexact
p928
assg44
g887
sVallowed_detail_http_methods
p929
(lp930
sVfields
p931
(dp932
g891
(dp933
Vnullable
p934
I00
sVdefault
p935
VNo default provided.
p936
sVreadonly
p937
I00
sVblank
p938
I00
sVhelp_text
p939
V__nodoc__
p940
sVunique
p941
I00
sVtype
p942
Vinteger
p943
ssg894
(dp944
g934
I00
sg935
VNo default provided.
p945
sg937
I00
sg938
I00
sg939
V__nodoc__
p946
sg941
I00
sg942
Vinteger
p947
ssg897
(dp948
g934
I00
sg935
VNo default provided.
p949
sg937
I00
sg938
I00
sg939
V__nodoc__
p950
sg941
I00
sg942
Vinteger
p951
ssg900
(dp952
Vrelated_type
p953
Vto_one
p954
sg934
I00
sg935
VNo default provided.
p955
sg937
I00
sg938
I01
sg939
V__nodoc__
p956
sg941
I00
sg942
Vrelated
p957
ssg904
(dp958
g934
I00
sg935
VNo default provided.
p959
sg937
I00
sg938
I00
sg939
V__nodoc__
p960
sg941
I00
sg942
Vinteger
p961
ssg911
(dp962
g934
I00
sg935
VNo default provided.
p963
sg937
I00
sg938
I00
sg939
V__nodoc__
p964
sg941
I00
sg942
Vinteger
p965
ssg914
(dp966
g953
Vto_one
p967
sg934
I01
sg935
VNo default provided.
p968
sg937
I00
sg938
I01
sg939
V__nodoc__
p969
sg941
I00
sg942
Vrelated
p970
ssg918
(dp971
g953
Vto_one
p972
sg934
I00
sg935
VNo default provided.
p973
sg937
I00
sg938
I00
sg939
V__nodoc__
p974
sg941
I00
sg942
Vrelated
p975
ssg922
(dp976
g953
Vto_one
p977
sg934
I00
sg935
VNo default provided.
p978
sg937
I00
sg938
I00
sg939
V__nodoc__
p979
sg941
I00
sg942
Vrelated
p980
ssg926
(dp981
g934
I00
sg935
VNo default provided.
p982
sg937
I00
sg938
I00
sg939
V__nodoc__
p983
sg941
I00
sg942
Vinteger
p984
sssg101
V/api/v1/qrs/
p985
sVdefault_format
p986
Vapplication/json
p987
sVdefault_limit
p988
I20
sVallowed_list_http_methods
p989
(lp990
Vget
p991
assVoauthrealm
p992
(dp993
g44
g992
sVallowed_detail_http_methods
p994
(lp995
Vget
p996
asVfields
p997
(dp998
Vresource_uri
p999
(dp1000
Vnullable
p1001
I00
sVdefault
p1002
VNo default provided.
p1003
sVreadonly
p1004
I01
sVblank
p1005
I00
sVhelp_text
p1006
VThe unique URI where the object resides.
p1007
sVunique
p1008
I00
sVtype
p1009
Vstring
p1010
ssVdescription
p1011
(dp1012
g1001
I00
sg1002
V
sg1004
I00
sg1005
I00
sg1006
VUnicode string data. Ex: "Hello World"
p1013
sg1008
I00
sg1009
Vstring
p1014
ssVname
p1015
(dp1016
g1001
I00
sg1002
VNo default provided.
p1017
sg1004
I00
sg1005
I00
sg1006
VUnicode string data. Ex: "Hello World"
p1018
sg1008
I00
sg1009
Vstring
p1019
ssVid
p1020
(dp1021
g1001
I00
sg1002
VNo default provided.
p1022
sg1004
I01
sg1005
I00
sg1006
VThe primary key for this resource. Integer data. Ex: 2673
p1023
sg1008
I01
sg1009
Vinteger
p1024
sssg101
V/api/v1/oauthrealm/
p1025
sVdefault_format
p1026
Vapplication/json
p1027
sVdefault_limit
p1028
I20
sVallowed_list_http_methods
p1029
(lp1030
Vget
p1031
assVbundle_permission
p1032
(dp1033
Vfiltering
p1034
(dp1035
Vuser_allowed
p1036
(lp1037
Vexact
p1038
aVin
p1039
asVuser_target
p1040
(lp1041
Vexact
p1042
aVin
p1043
asVbundle
p1044
(lp1045
Vexact
p1046
aVin
p1047
assg44
g1032
sVallowed_detail_http_methods
p1048
(lp1049
Vget
p1050
aVput
p1051
aVpatch
p1052
aVdelete
p1053
asVfields
p1054
(dp1055
g1036
(dp1056
Vrelated_type
p1057
Vto_one
p1058
sVnullable
p1059
I00
sVdefault
p1060
VNo default provided.
p1061
sVreadonly
p1062
I00
sVblank
p1063
I00
sVhelp_text
p1064
VA [:r:user].  Maybe specified by URI, email, or ID.  Using a URI is recommended.
p1065
sVunique
p1066
I00
sVtype
p1067
Vrelated
p1068
ssg1040
(dp1069
g1057
Vto_one
p1070
sg1059
I00
sg1060
VNo default provided.
p1071
sg1062
I00
sg1063
I00
sg1064
VThe primary key for this resource. A [:r:user].  Maybe specified by URI, email, or ID.  Using a URI is recommended.
p1072
sg1066
I00
sg1067
Vrelated
p1073
ssVname
p1074
(dp1075
g1059
I01
sg1060
VNo default provided.
p1076
sg1062
I00
sg1063
I01
sg1064
VUnicode string data. Ex: "Hello World"
p1077
sg1066
I00
sg1067
Vstring
p1078
ssg1044
(dp1079
g1057
Vto_one
p1080
sg1059
I00
sg1060
VNo default provided.
p1081
sg1062
I00
sg1063
I00
sg1064
VA reference to [:r:bundle].  Maybe specified by URI or ID.  Using a URI is recommended.
p1082
sg1066
I00
sg1067
Vrelated
p1083
ssVresource_uri
p1084
(dp1085
g1059
I00
sg1060
VNo default provided.
p1086
sg1062
I01
sg1063
I00
sg1064
VThe unique URI where the object resides.
p1087
sg1066
I00
sg1067
Vstring
p1088
sssg101
V/api/v1/bundle_permission/
p1089
sVdefault_format
p1090
Vapplication/json
p1091
sVdefault_limit
p1092
I20
sVallowed_list_http_methods
p1093
(lp1094
Vget
p1095
aVpost
p1096
aVpatch
p1097
assVactivitytype
p1098
(dp1099
Vfiltering
p1100
(dp1101
Vusing
p1102
(lp1103
Vexact
p1104
asVid
p1105
(lp1106
Vexact
p1107
aVin
p1108
asVuser
p1109
(lp1110
Vexact
p1111
aVin
p1112
assg44
g1098
sVallowed_detail_http_methods
p1113
(lp1114
Vget
p1115
aVput
p1116
aVpatch
p1117
aVdelete
p1118
asVfields
p1119
(dp1120
Vdescription
p1121
(dp1122
Vnullable
p1123
I00
sVdefault
p1124
V
sVreadonly
p1125
I00
sVblank
p1126
I01
sVhelp_text
p1127
VUnicode string data. Ex: "Hello World"
p1128
sVunique
p1129
I00
sVtype
p1130
Vstring
p1131
ssVname
p1132
(dp1133
g1123
I00
sg1124
VNo default provided.
p1134
sg1125
I00
sg1126
I00
sg1127
VUnicode string data. Ex: "Hello World"
p1135
sg1129
I00
sg1130
Vstring
p1136
ssg1109
(dp1137
Vrelated_type
p1138
Vto_one
p1139
sg1123
I01
sg1124
VNo default provided.
p1140
sg1125
I00
sg1126
I00
sg1127
VA [:r:user].  Maybe specified by URI, email, or ID.  Using a URI is recommended.
p1141
sg1129
I00
sg1130
Vrelated
p1142
ssg1102
(dp1143
g1123
I00
sg1124
VNo default provided.
p1144
sg1125
I00
sg1126
I00
sg1127
V__nodoc__
p1145
sg1129
I00
sg1130
Vstring
p1146
ssVattributes
p1147
(dp1148
g1138
Vto_many
p1149
sg1123
I00
sg1124
(dp1150
sg1125
I00
sg1126
I01
sg1127
VMany related resources. Can be either a list of URIs or list of individually nested resource data.
p1151
sg1129
I00
sg1130
Vrelated
p1152
ssg1105
(dp1153
g1123
I00
sg1124
VNo default provided.
p1154
sg1125
I01
sg1126
I00
sg1127
VThe primary key for this resource. Integer data. Ex: 2673
p1155
sg1129
I01
sg1130
Vinteger
p1156
ssVresource_uri
p1157
(dp1158
g1123
I00
sg1124
VNo default provided.
p1159
sg1125
I01
sg1126
I00
sg1127
VThe unique URI where the object resides.
p1160
sg1129
I00
sg1130
Vstring
p1161
sssg101
V/api/v1/activitytype/
p1162
sVdefault_format
p1163
Vapplication/json
p1164
sVdefault_limit
p1165
I20
sVallowed_list_http_methods
p1166
(lp1167
Vget
p1168
aVpost
p1169
aVpatch
p1170
assVactivity
p1171
(dp1172
Vfiltering
p1173
(dp1174
Vflat
p1175
(lp1176
Vexact
p1177
asVend
p1178
(lp1179
Vexact
p1180
asVstart
p1181
(lp1182
Vexact
p1183
asVdatatype
p1184
(lp1185
Vexact
p1186
aVin
p1187
asVtimestamp
p1188
(lp1189
Vrange
p1190
aVgt
p1191
aVgte
p1192
aVlt
p1193
aVlte
p1194
asVno_timestamps
p1195
(lp1196
Vexact
p1197
asVrecord
p1198
(lp1199
Vexact
p1200
aVin
p1201
asVrange
p1202
(lp1203
Vexact
p1204
aVin
p1205
asVuser
p1206
(lp1207
Vexact
p1208
aVin
p1209
asVmax_values
p1210
(lp1211
Vexact
p1212
assg44
g1171
sVallowed_detail_http_methods
p1213
(lp1214
sVfields
p1215
(dp1216
g1175
(dp1217
Vnullable
p1218
I00
sVdefault
p1219
VNo default provided.
p1220
sVreadonly
p1221
I00
sVblank
p1222
I00
sVhelp_text
p1223
V__nodoc__
p1224
sVunique
p1225
I00
sVtype
p1226
Vinteger
p1227
ssg1178
(dp1228
g1218
I00
sg1219
VNo default provided.
p1229
sg1221
I00
sg1222
I00
sg1223
V__nodoc__
p1230
sg1225
I00
sg1226
Vinteger
p1231
ssg1181
(dp1232
g1218
I00
sg1219
VNo default provided.
p1233
sg1221
I00
sg1222
I00
sg1223
V__nodoc__
p1234
sg1225
I00
sg1226
Vinteger
p1235
ssg1184
(dp1236
Vrelated_type
p1237
Vto_one
p1238
sg1218
I00
sg1219
VNo default provided.
p1239
sg1221
I00
sg1222
I01
sg1223
V__nodoc__
p1240
sg1225
I00
sg1226
Vrelated
p1241
ssg1188
(dp1242
g1218
I00
sg1219
VNo default provided.
p1243
sg1221
I00
sg1222
I00
sg1223
V__nodoc__
p1244
sg1225
I00
sg1226
Vinteger
p1245
ssg1195
(dp1246
g1218
I00
sg1219
VNo default provided.
p1247
sg1221
I00
sg1222
I00
sg1223
V__nodoc__
p1248
sg1225
I00
sg1226
Vinteger
p1249
ssg1198
(dp1250
g1237
Vto_one
p1251
sg1218
I01
sg1219
VNo default provided.
p1252
sg1221
I00
sg1222
I01
sg1223
V__nodoc__
p1253
sg1225
I00
sg1226
Vrelated
p1254
ssg1202
(dp1255
g1237
Vto_one
p1256
sg1218
I00
sg1219
VNo default provided.
p1257
sg1221
I00
sg1222
I00
sg1223
V__nodoc__
p1258
sg1225
I00
sg1226
Vrelated
p1259
ssg1206
(dp1260
g1237
Vto_one
p1261
sg1218
I00
sg1219
VNo default provided.
p1262
sg1221
I00
sg1222
I00
sg1223
V__nodoc__
p1263
sg1225
I00
sg1226
Vrelated
p1264
ssg1210
(dp1265
g1218
I00
sg1219
VNo default provided.
p1266
sg1221
I00
sg1222
I00
sg1223
V__nodoc__
p1267
sg1225
I00
sg1226
Vinteger
p1268
sssg101
V/api/v1/activity/
p1269
sVdefault_format
p1270
Vapplication/json
p1271
sVdefault_limit
p1272
I20
sVallowed_list_http_methods
p1273
(lp1274
Vget
p1275
assVptt
p1276
(dp1277
Vfiltering
p1278
(dp1279
Vflat
p1280
(lp1281
Vexact
p1282
asVend
p1283
(lp1284
Vexact
p1285
asVstart
p1286
(lp1287
Vexact
p1288
asVdatatype
p1289
(lp1290
Vexact
p1291
aVin
p1292
asVtimestamp
p1293
(lp1294
Vrange
p1295
aVgt
p1296
aVgte
p1297
aVlt
p1298
aVlte
p1299
asVno_timestamps
p1300
(lp1301
Vexact
p1302
asVrecord
p1303
(lp1304
Vexact
p1305
aVin
p1306
asVrange
p1307
(lp1308
Vexact
p1309
aVin
p1310
asVuser
p1311
(lp1312
Vexact
p1313
aVin
p1314
asVmax_values
p1315
(lp1316
Vexact
p1317
assg44
g1276
sVallowed_detail_http_methods
p1318
(lp1319
sVfields
p1320
(dp1321
g1280
(dp1322
Vnullable
p1323
I00
sVdefault
p1324
VNo default provided.
p1325
sVreadonly
p1326
I00
sVblank
p1327
I00
sVhelp_text
p1328
V__nodoc__
p1329
sVunique
p1330
I00
sVtype
p1331
Vinteger
p1332
ssg1283
(dp1333
g1323
I00
sg1324
VNo default provided.
p1334
sg1326
I00
sg1327
I00
sg1328
V__nodoc__
p1335
sg1330
I00
sg1331
Vinteger
p1336
ssg1286
(dp1337
g1323
I00
sg1324
VNo default provided.
p1338
sg1326
I00
sg1327
I00
sg1328
V__nodoc__
p1339
sg1330
I00
sg1331
Vinteger
p1340
ssg1289
(dp1341
Vrelated_type
p1342
Vto_one
p1343
sg1323
I00
sg1324
VNo default provided.
p1344
sg1326
I00
sg1327
I01
sg1328
V__nodoc__
p1345
sg1330
I00
sg1331
Vrelated
p1346
ssg1293
(dp1347
g1323
I00
sg1324
VNo default provided.
p1348
sg1326
I00
sg1327
I00
sg1328
V__nodoc__
p1349
sg1330
I00
sg1331
Vinteger
p1350
ssg1300
(dp1351
g1323
I00
sg1324
VNo default provided.
p1352
sg1326
I00
sg1327
I00
sg1328
V__nodoc__
p1353
sg1330
I00
sg1331
Vinteger
p1354
ssg1303
(dp1355
g1342
Vto_one
p1356
sg1323
I01
sg1324
VNo default provided.
p1357
sg1326
I00
sg1327
I01
sg1328
V__nodoc__
p1358
sg1330
I00
sg1331
Vrelated
p1359
ssg1307
(dp1360
g1342
Vto_one
p1361
sg1323
I00
sg1324
VNo default provided.
p1362
sg1326
I00
sg1327
I00
sg1328
V__nodoc__
p1363
sg1330
I00
sg1331
Vrelated
p1364
ssg1311
(dp1365
g1342
Vto_one
p1366
sg1323
I00
sg1324
VNo default provided.
p1367
sg1326
I00
sg1327
I00
sg1328
V__nodoc__
p1368
sg1330
I00
sg1331
Vrelated
p1369
ssg1315
(dp1370
g1323
I00
sg1324
VNo default provided.
p1371
sg1326
I00
sg1327
I00
sg1328
V__nodoc__
p1372
sg1330
I00
sg1331
Vinteger
p1373
sssg101
V/api/v1/ptt/
p1374
sVdefault_format
p1375
Vapplication/json
p1376
sVdefault_limit
p1377
I20
sVallowed_list_http_methods
p1378
(lp1379
Vget
p1380
assVtrainingroutine
p1381
(dp1382
Vfiltering
p1383
(dp1384
Vactivitytype
p1385
(lp1386
Vexact
p1387
aVin
p1388
aVisnull
p1389
asVuser
p1390
(lp1391
Vin
p1392
aVexact
p1393
asVreport
p1394
(lp1395
Vin
p1396
aVexact
p1397
asVusing
p1398
(lp1399
Vexact
p1400
asVid
p1401
(lp1402
Vexact
p1403
aVin
p1404
asVtrainingroutines
p1405
(lp1406
Vin
p1407
aVexact
p1408
assg44
g1381
sVallowed_detail_http_methods
p1409
(lp1410
Vget
p1411
aVput
p1412
aVpatch
p1413
aVdelete
p1414
asVfields
p1415
(dp1416
Vdescription
p1417
(dp1418
Vnullable
p1419
I00
sVdefault
p1420
V
sVreadonly
p1421
I00
sVblank
p1422
I01
sVhelp_text
p1423
VUnicode string data. Ex: "Hello World"
p1424
sVunique
p1425
I00
sVtype
p1426
Vstring
p1427
ssg1390
(dp1428
Vrelated_type
p1429
Vto_one
p1430
sg1419
I01
sg1420
VNo default provided.
p1431
sg1421
I00
sg1422
I00
sg1423
VA [:r:user].  Maybe specified by URI, email, or ID.  Using a URI is recommended.
p1432
sg1425
I00
sg1426
Vrelated
p1433
ssg1385
(dp1434
g1429
Vto_one
p1435
sg1419
I01
sg1420
VNo default provided.
p1436
sg1421
I00
sg1422
I01
sg1423
VA reference to [:r:activitytype].  Maybe specified by URI or ID.  Using a URI is recommended.
p1437
sg1425
I00
sg1426
Vrelated
p1438
ssVapplication_metadata
p1439
(dp1440
g1429
Vto_many
p1441
sg1419
I01
sg1420
VNo default provided.
p1442
sg1421
I00
sg1422
I00
sg1423
VAn object that is associated with the parent resource for each application.
p1443
sg1425
I00
sg1426
Vrelated
p1444
ssVname
p1445
(dp1446
g1419
I00
sg1420
VNo default provided.
p1447
sg1421
I00
sg1422
I00
sg1423
VUnicode string data. Ex: "Hello World"
p1448
sg1425
I00
sg1426
Vstring
p1449
ssg1405
(dp1450
g1429
Vto_many
p1451
sg1419
I01
sg1420
VNo default provided.
p1452
sg1421
I00
sg1422
I00
sg1423
VMany related resources. Can be either a list of URIs or list of individually nested resource data.
p1453
sg1425
I00
sg1426
Vrelated
p1454
ssVcalculation_type
p1455
(dp1456
g1419
I00
sg1420
V
sg1421
I00
sg1422
I01
sg1423
VA list of calculations to perform on trainingsessions of this type.  This data is used internally and not exposed via the API.
p1457
sg1425
I00
sg1426
Vstring
p1458
ssg1394
(dp1459
g1429
Vto_one
p1460
sg1419
I01
sg1420
VNo default provided.
p1461
sg1421
I00
sg1422
I01
sg1423
VA reference to [:r:report].  Maybe specified by URI or ID.  Using a URI is recommended.
p1462
sg1425
I00
sg1426
Vrelated
p1463
ssg1398
(dp1464
g1419
I00
sg1420
VNo default provided.
p1465
sg1421
I00
sg1422
I00
sg1423
V__nodoc__
p1466
sg1425
I00
sg1426
Vstring
p1467
ssVresource_uri
p1468
(dp1469
g1419
I00
sg1420
VNo default provided.
p1470
sg1421
I01
sg1422
I00
sg1423
VThe unique URI where the object resides.
p1471
sg1425
I00
sg1426
Vstring
p1472
ssg1401
(dp1473
g1419
I00
sg1420
VNo default provided.
p1474
sg1421
I01
sg1422
I00
sg1423
VThe primary key for this resource. Integer data. Ex: 2673
p1475
sg1425
I01
sg1426
Vinteger
p1476
ssVmetadata
p1477
(dp1478
g1419
I01
sg1420
VNo default provided.
p1479
sg1421
I00
sg1422
I00
sg1423
V
sg1425
I00
sg1426
Vstring
p1480
sssg101
V/api/v1/trainingroutine/
p1481
sVdefault_format
p1482
Vapplication/json
p1483
sVdefault_limit
p1484
I20
sVallowed_list_http_methods
p1485
(lp1486
Vget
p1487
aVpost
p1488
aVpatch
p1489
assVunit
p1490
(dp1491
g44
g1490
sVallowed_detail_http_methods
p1492
(lp1493
Vget
p1494
asVfields
p1495
(dp1496
Vinfo
p1497
(dp1498
Vnullable
p1499
I00
sVdefault
p1500
V
sVreadonly
p1501
I00
sVblank
p1502
I00
sVhelp_text
p1503
VDescription of the  the unit
p1504
sVunique
p1505
I00
sVtype
p1506
Vstring
p1507
ssVconstant
p1508
(dp1509
g1499
I00
sg1500
Nsg1501
I00
sg1502
I00
sg1503
VA string defining the unit
p1510
sg1505
I01
sg1506
Vstring
p1511
ssVsi_short
p1512
(dp1513
g1499
I00
sg1500
VNo default provided.
p1514
sg1501
I00
sg1502
I00
sg1503
VUnit symbol as define in international system (if applicable). 
p1515
sg1505
I00
sg1506
Vstring
p1516
ssVcommon_name
p1517
(dp1518
g1499
I00
sg1500
VNo default provided.
p1519
sg1501
I00
sg1502
I00
sg1503
VUnit usual name
p1520
sg1505
I00
sg1506
Vstring
p1521
ssVid
p1522
(dp1523
g1499
I00
sg1500
VNo default provided.
p1524
sg1501
I01
sg1502
I00
sg1503
VThe primary key for this resource. Integer data. Ex: 2673
p1525
sg1505
I01
sg1506
Vinteger
p1526
ssVsi_long
p1527
(dp1528
g1499
I00
sg1500
VNo default provided.
p1529
sg1501
I00
sg1502
I00
sg1503
VUnit name as define in international system (if applicable)
p1530
sg1505
I00
sg1506
Vstring
p1531
ssVresource_uri
p1532
(dp1533
g1499
I00
sg1500
VNo default provided.
p1534
sg1501
I01
sg1502
I00
sg1503
VThe unique URI where the object resides.
p1535
sg1505
I00
sg1506
Vstring
p1536
sssg101
V/api/v1/unit/
p1537
sVdefault_format
p1538
Vapplication/json
p1539
sVdefault_limit
p1540
I20
sVallowed_list_http_methods
p1541
(lp1542
Vget
p1543
assVlabelledobject
p1544
(dp1545
g44
g1544
sVallowed_detail_http_methods
p1546
(lp1547
Vget
p1548
aVput
p1549
aVpatch
p1550
aVdelete
p1551
asVfields
p1552
(dp1553
Vobject
p1554
(dp1555
Vnullable
p1556
I00
sVdefault
p1557
VNo default provided.
p1558
sVreadonly
p1559
I00
sVblank
p1560
I00
sVhelp_text
p1561
VURI of the object.
p1562
sVunique
p1563
I00
sVtype
p1564
Vstring
p1565
ssVresource_uri
p1566
(dp1567
g1556
I00
sg1557
VNo default provided.
p1568
sg1559
I01
sg1560
I00
sg1561
VThe unique URI where the object resides.
p1569
sg1563
I00
sg1564
Vstring
p1570
ssVlabel
p1571
(dp1572
Vrelated_type
p1573
Vto_one
p1574
sg1556
I00
sg1557
VNo default provided.
p1575
sg1559
I00
sg1560
I00
sg1561
VA single related resource. Can be either a URI or set of nested resource data.
p1576
sg1563
I00
sg1564
Vrelated
p1577
sssg101
V/api/v1/labelledobject/
p1578
sVdefault_format
p1579
Vapplication/json
p1580
sVdefault_limit
p1581
I20
sVallowed_list_http_methods
p1582
(lp1583
Vget
p1584
aVpost
p1585
aVpatch
p1586
assVstatistics
p1587
(dp1588
Vfiltering
p1589
(dp1590
Vstart
p1591
(lp1592
Vexact
p1593
aVrange
p1594
aVgte
p1595
aVlte
p1596
asVend
p1597
(lp1598
Vexact
p1599
aVrange
p1600
aVgte
p1601
aVlte
p1602
asVuser
p1603
(lp1604
Vexact
p1605
aVin
p1606
assg44
g1587
sVallowed_detail_http_methods
p1607
(lp1608
Vget
p1609
asVordering
p1610
(lp1611
Vstart
p1612
asVfields
p1613
(dp1614
Vhrvlfratio_min
p1615
(dp1616
Vnullable
p1617
I00
sVdefault
p1618
I0
sVreadonly
p1619
I00
sVblank
p1620
I01
sVhelp_text
p1621
V/api/v1/metric/53/
p1622
sVunique
p1623
I00
sVtype
p1624
Vfloat
p1625
ssVstep_count
p1626
(dp1627
g1617
I00
sg1618
I0
sg1619
I00
sg1620
I01
sg1621
V/api/v1/metric/71/
p1628
sg1623
I00
sg1624
Vinteger
p1629
ssVactivity_avg
p1630
(dp1631
g1617
I00
sg1618
I0
sg1619
I00
sg1620
I01
sg1621
V/api/v1/metric/1/
p1632
sg1623
I00
sg1624
Vfloat
p1633
ssVversion
p1634
(dp1635
g1617
I00
sg1618
V0
sg1619
I00
sg1620
I00
sg1621
VUnicode string data. Ex: "Hello World"
p1636
sg1623
I00
sg1624
Vstring
p1637
ssVcadence_min
p1638
(dp1639
g1617
I00
sg1618
I0
sg1619
I00
sg1620
I01
sg1621
V/api/v1/metric/20/
p1640
sg1623
I00
sg1624
Vfloat
p1641
ssVSDANN_min
p1642
(dp1643
g1617
I00
sg1618
I0
sg1619
I00
sg1620
I01
sg1621
V/api/v1/metric/111/
p1644
sg1623
I00
sg1624
Vfloat
p1645
ssVduration
p1646
(dp1647
g1617
I00
sg1618
I0
sg1619
I00
sg1620
I01
sg1621
V/api/v1/metric/22/
p1648
sg1623
I00
sg1624
Vfloat
p1649
ssVminuteventilation_max
p1650
(dp1651
g1617
I00
sg1618
I0
sg1619
I00
sg1620
I01
sg1621
V/api/v1/metric/57/
p1652
sg1623
I00
sg1624
Vfloat
p1653
ssVspo2_max
p1654
(dp1655
g1617
I00
sg1618
I0
sg1619
I00
sg1620
I01
sg1621
V/api/v1/metric/68/
p1656
sg1623
I00
sg1624
Vfloat
p1657
ssVECG_STATUS_SATURATED
p1658
(dp1659
g1617
I00
sg1618
I0
sg1619
I00
sg1620
I01
sg1621
V/api/v1/metric/203/
p1660
sg1623
I00
sg1624
Vfloat
p1661
ssVheartrate_avg
p1662
(dp1663
g1617
I00
sg1618
I0
sg1619
I00
sg1620
I01
sg1621
V/api/v1/metric/44/
p1664
sg1623
I00
sg1624
Vfloat
p1665
ssVhrvlfratio_max
p1666
(dp1667
g1617
I00
sg1618
I0
sg1619
I00
sg1620
I01
sg1621
V/api/v1/metric/52/
p1668
sg1623
I00
sg1624
Vfloat
p1669
ssVbp_avg
p1670
(dp1671
g1617
I00
sg1618
I0
sg1619
I00
sg1620
I01
sg1621
V/api/v1/metric/6/
p1672
sg1623
I00
sg1624
Vfloat
p1673
ssVenergy_estimated_with_user_specs
p1674
(dp1675
g1617
I00
sg1618
I01
sg1619
I00
sg1620
I01
sg1621
V/api/v1/metric//
p1676
sg1623
I00
sg1624
Vboolean
p1677
ssVenergycadence_max
p1678
(dp1679
g1617
I00
sg1618
I0
sg1619
I00
sg1620
I01
sg1621
V/api/v1/metric/33/
p1680
sg1623
I00
sg1624
Vfloat
p1681
ssg1597
(dp1682
g1617
I00
sg1618
VNo default provided.
p1683
sg1619
I00
sg1620
I00
sg1621
V An integer indicating the number of 256ths of a second that have passed since Jan 1, 1970 UTC, ie. a traditional timestamp, multiplied by 256.
p1684
sg1623
I00
sg1624
Vinteger
p1685
ssVcadence_max
p1686
(dp1687
g1617
I00
sg1618
I0
sg1619
I00
sg1620
I01
sg1621
V/api/v1/metric/19/
p1688
sg1623
I00
sg1624
Vfloat
p1689
ssVbreath_count
p1690
(dp1691
g1617
I00
sg1618
I0
sg1619
I00
sg1620
I01
sg1621
V/api/v1/metric/11/
p1692
sg1623
I00
sg1624
Vinteger
p1693
ssVenergyecg_w_baseline_total
p1694
(dp1695
g1617
I00
sg1618
I0
sg1619
I00
sg1620
I01
sg1621
V/api/v1/metric/125/
p1696
sg1623
I00
sg1624
Vfloat
p1697
ssg1603
(dp1698
Vrelated_type
p1699
Vto_one
p1700
sg1617
I00
sg1618
VNo default provided.
p1701
sg1619
I00
sg1620
I00
sg1621
VA [:r:user].  Maybe specified by URI, email, or ID.  Using a URI is recommended.
p1702
sg1623
I00
sg1624
Vrelated
p1703
ssVtemperature_avg
p1704
(dp1705
g1617
I00
sg1618
I0
sg1619
I00
sg1620
I01
sg1621
V/api/v1/metric/72/
p1706
sg1623
I00
sg1624
Vfloat
p1707
ssVid
p1708
(dp1709
g1617
I00
sg1618
VNo default provided.
p1710
sg1619
I01
sg1620
I00
sg1621
VThe primary key for this resource. Integer data. Ex: 2673
p1711
sg1623
I00
sg1624
Vinteger
p1712
ssVbreathingrate_min
p1713
(dp1714
g1617
I00
sg1618
I0
sg1619
I00
sg1620
I01
sg1621
V/api/v1/metric/15/
p1715
sg1623
I00
sg1624
Vfloat
p1716
ssg1591
(dp1717
g1617
I00
sg1618
VNo default provided.
p1718
sg1619
I00
sg1620
I00
sg1621
V An integer indicating the number of 256ths of a second that have passed since Jan 1, 1970 UTC, ie. a traditional timestamp, multiplied by 256.
p1719
sg1623
I00
sg1624
Vinteger
p1720
ssVenergyecg_min
p1721
(dp1722
g1617
I00
sg1618
I0
sg1619
I00
sg1620
I01
sg1621
V/api/v1/metric/41/
p1723
sg1623
I00
sg1624
Vfloat
p1724
ssVactivity_max
p1725
(dp1726
g1617
I00
sg1618
I0
sg1619
I00
sg1620
I01
sg1621
V/api/v1/metric/3/
p1727
sg1623
I00
sg1624
Vfloat
p1728
ssVenergycadence_total
p1729
(dp1730
g1617
I00
sg1618
I0
sg1619
I00
sg1620
I01
sg1621
V/api/v1/metric/36/
p1731
sg1623
I00
sg1624
Vfloat
p1732
ssVRESP_STATUS_NO_B
p1733
(dp1734
g1617
I00
sg1618
I0
sg1619
I00
sg1620
I01
sg1621
V/api/v1/metric/212/
p1735
sg1623
I00
sg1624
Vfloat
p1736
ssVheartrate_max
p1737
(dp1738
g1617
I00
sg1618
I0
sg1619
I00
sg1620
I01
sg1621
V/api/v1/metric/46/
p1739
sg1623
I00
sg1624
Vfloat
p1740
ssVactivity_min
p1741
(dp1742
g1617
I00
sg1618
I0
sg1619
I00
sg1620
I01
sg1621
V/api/v1/metric/4/
p1743
sg1623
I00
sg1624
Vfloat
p1744
ssVRESP_STATUS_NO_A
p1745
(dp1746
g1617
I00
sg1618
I0
sg1619
I00
sg1620
I01
sg1621
V/api/v1/metric/211/
p1747
sg1623
I00
sg1624
Vfloat
p1748
ssVtidalvolume_min
p1749
(dp1750
g1617
I00
sg1618
I0
sg1619
I00
sg1620
I01
sg1621
V/api/v1/metric/80/
p1751
sg1623
I00
sg1624
Vfloat
p1752
ssVenergyecg_avg
p1753
(dp1754
g1617
I00
sg1618
I0
sg1619
I00
sg1620
I01
sg1621
V/api/v1/metric/38/
p1755
sg1623
I00
sg1624
Vfloat
p1756
ssVRESP_STATUS_NOISY_B
p1757
(dp1758
g1617
I00
sg1618
I0
sg1619
I00
sg1620
I01
sg1621
V/api/v1/metric/216/
p1759
sg1623
I00
sg1624
Vfloat
p1760
ssVRESP_STATUS_NOISY_A
p1761
(dp1762
g1617
I00
sg1618
I0
sg1619
I00
sg1620
I01
sg1621
V/api/v1/metric/215/
p1763
sg1623
I00
sg1624
Vfloat
p1764
ssVspo2_min
p1765
(dp1766
g1617
I00
sg1618
I0
sg1619
I00
sg1620
I01
sg1621
V/api/v1/metric/69/
p1767
sg1623
I00
sg1624
Vfloat
p1768
ssVheartrate_min
p1769
(dp1770
g1617
I00
sg1618
I0
sg1619
I00
sg1620
I01
sg1621
V/api/v1/metric/47/
p1771
sg1623
I00
sg1624
Vfloat
p1772
ssVspo2_avg
p1773
(dp1774
g1617
I00
sg1618
I0
sg1619
I00
sg1620
I01
sg1621
V/api/v1/metric/66/
p1775
sg1623
I00
sg1624
Vfloat
p1776
ssVenergycadence_min
p1777
(dp1778
g1617
I00
sg1618
I0
sg1619
I00
sg1620
I01
sg1621
V/api/v1/metric/34/
p1779
sg1623
I00
sg1624
Vfloat
p1780
ssVRESP_STATUS_OK
p1781
(dp1782
g1617
I00
sg1618
I0
sg1619
I00
sg1620
I01
sg1621
V/api/v1/metric/210/
p1783
sg1623
I00
sg1624
Vfloat
p1784
ssVbp_max
p1785
(dp1786
g1617
I00
sg1618
I0
sg1619
I00
sg1620
I01
sg1621
V/api/v1/metric/8/
p1787
sg1623
I00
sg1624
Vfloat
p1788
ssVbreathingrate_max
p1789
(dp1790
g1617
I00
sg1618
I0
sg1619
I00
sg1620
I01
sg1621
V/api/v1/metric/14/
p1791
sg1623
I00
sg1624
Vfloat
p1792
ssVbreathingrate_avg
p1793
(dp1794
g1617
I00
sg1618
I0
sg1619
I00
sg1620
I01
sg1621
V/api/v1/metric/12/
p1795
sg1623
I00
sg1624
Vfloat
p1796
ssVenergyecg_max
p1797
(dp1798
g1617
I00
sg1618
I0
sg1619
I00
sg1620
I01
sg1621
V/api/v1/metric/40/
p1799
sg1623
I00
sg1624
Vfloat
p1800
ssVSDANN_avg
p1801
(dp1802
g1617
I00
sg1618
I0
sg1619
I00
sg1620
I01
sg1621
V/api/v1/metric/108/
p1803
sg1623
I00
sg1624
Vfloat
p1804
ssVtidalvolume_avg
p1805
(dp1806
g1617
I00
sg1618
I0
sg1619
I00
sg1620
I01
sg1621
V/api/v1/metric/77/
p1807
sg1623
I00
sg1624
Vfloat
p1808
ssVRESP_STATUS_BASELINE_A
p1809
(dp1810
g1617
I00
sg1618
I0
sg1619
I00
sg1620
I01
sg1621
V/api/v1/metric/213/
p1811
sg1623
I00
sg1624
Vfloat
p1812
ssVRESP_STATUS_BASELINE_B
p1813
(dp1814
g1617
I00
sg1618
I0
sg1619
I00
sg1620
I01
sg1621
V/api/v1/metric/214/
p1815
sg1623
I00
sg1624
Vfloat
p1816
ssVminuteventilation_min
p1817
(dp1818
g1617
I00
sg1618
I0
sg1619
I00
sg1620
I01
sg1621
V/api/v1/metric/58/
p1819
sg1623
I00
sg1624
Vfloat
p1820
ssVnsample
p1821
(dp1822
g1617
I00
sg1618
I0
sg1619
I00
sg1620
I01
sg1621
V/api/v1/metric/113/
p1823
sg1623
I00
sg1624
Vinteger
p1824
ssVECG_STATUS_ARTIFACTS
p1825
(dp1826
g1617
I00
sg1618
I0
sg1619
I00
sg1620
I01
sg1621
V/api/v1/metric/204/
p1827
sg1623
I00
sg1624
Vfloat
p1828
ssVminuteventilation_avg
p1829
(dp1830
g1617
I00
sg1618
I0
sg1619
I00
sg1620
I01
sg1621
V/api/v1/metric/55/
p1831
sg1623
I00
sg1624
Vfloat
p1832
ssVECG_STATUS_DISCONNECTED
p1833
(dp1834
g1617
I00
sg1618
I0
sg1619
I00
sg1620
I01
sg1621
V/api/v1/metric/201/
p1835
sg1623
I00
sg1624
Vfloat
p1836
ssVcadence_avg
p1837
(dp1838
g1617
I00
sg1618
I0
sg1619
I00
sg1620
I01
sg1621
V/api/v1/metric/17/
p1839
sg1623
I00
sg1624
Vfloat
p1840
ssVSDANN_max
p1841
(dp1842
g1617
I00
sg1618
I0
sg1619
I00
sg1620
I01
sg1621
V/api/v1/metric/110/
p1843
sg1623
I00
sg1624
Vfloat
p1844
ssVenergycadence_avg
p1845
(dp1846
g1617
I00
sg1618
I0
sg1619
I00
sg1620
I01
sg1621
V/api/v1/metric/31/
p1847
sg1623
I00
sg1624
Vfloat
p1848
ssVtemperature_max
p1849
(dp1850
g1617
I00
sg1618
I0
sg1619
I00
sg1620
I01
sg1621
V/api/v1/metric/74/
p1851
sg1623
I00
sg1624
Vfloat
p1852
ssVECG_STATUS_UNRELIABLE_RR
p1853
(dp1854
g1617
I00
sg1618
I0
sg1619
I00
sg1620
I01
sg1621
V/api/v1/metric/205/
p1855
sg1623
I00
sg1624
Vfloat
p1856
ssVECG_STATUS_OK
p1857
(dp1858
g1617
I00
sg1618
I0
sg1619
I00
sg1620
I01
sg1621
V/api/v1/metric/200/
p1859
sg1623
I00
sg1624
Vfloat
p1860
ssVECG_STATUS_50_60HZ
p1861
(dp1862
g1617
I00
sg1618
I0
sg1619
I00
sg1620
I01
sg1621
V/api/v1/metric/202/
p1863
sg1623
I00
sg1624
Vfloat
p1864
ssVhrvlfratio_avg
p1865
(dp1866
g1617
I00
sg1618
I0
sg1619
I00
sg1620
I01
sg1621
V/api/v1/metric/50/
p1867
sg1623
I00
sg1624
Vfloat
p1868
ssVduration_type
p1869
(dp1870
g1617
I00
sg1618
I0
sg1619
I00
sg1620
I00
sg1621
VSay if the statistics represent a complete hour, or a partial hour
p1871
sg1623
I00
sg1624
Vinteger
p1872
ssVresource_uri
p1873
(dp1874
g1617
I00
sg1618
VNo default provided.
p1875
sg1619
I01
sg1620
I00
sg1621
VThe unique URI where the object resides.
p1876
sg1623
I00
sg1624
Vstring
p1877
ssVtemperature_min
p1878
(dp1879
g1617
I00
sg1618
I0
sg1619
I00
sg1620
I01
sg1621
V/api/v1/metric/75/
p1880
sg1623
I00
sg1624
Vfloat
p1881
ssVbp_min
p1882
(dp1883
g1617
I00
sg1618
I0
sg1619
I00
sg1620
I01
sg1621
V/api/v1/metric/9/
p1884
sg1623
I00
sg1624
Vfloat
p1885
ssVtidalvolume_max
p1886
(dp1887
g1617
I00
sg1618
I0
sg1619
I00
sg1620
I01
sg1621
V/api/v1/metric/79/
p1888
sg1623
I00
sg1624
Vfloat
p1889
ssVenergyecg_total
p1890
(dp1891
g1617
I00
sg1618
I0
sg1619
I00
sg1620
I01
sg1621
V/api/v1/metric/43/
p1892
sg1623
I00
sg1624
Vfloat
p1893
sssg101
V/api/v1/statistics/
p1894
sVdefault_format
p1895
Vapplication/json
p1896
sVdefault_limit
p1897
I20
sVallowed_list_http_methods
p1898
(lp1899
Vget
p1900
assVcontenttype
p1901
(dp1902
g44
g1901
sVallowed_detail_http_methods
p1903
(lp1904
Vget
p1905
asVfields
p1906
(dp1907
Vmodel
p1908
(dp1909
Vnullable
p1910
I00
sVdefault
p1911
VNo default provided.
p1912
sVreadonly
p1913
I00
sVblank
p1914
I00
sVhelp_text
p1915
VUnicode string data. Ex: "Hello World"
p1916
sVunique
p1917
I00
sVtype
p1918
Vstring
p1919
ssVname
p1920
(dp1921
g1910
I00
sg1911
VNo default provided.
p1922
sg1913
I00
sg1914
I00
sg1915
VUnicode string data. Ex: "Hello World"
p1923
sg1917
I00
sg1918
Vstring
p1924
ssVresource_uri
p1925
(dp1926
g1910
I00
sg1911
VNo default provided.
p1927
sg1913
I01
sg1914
I00
sg1915
VThe unique URI where the object resides.
p1928
sg1917
I00
sg1918
Vstring
p1929
sssg101
V/api/v1/contenttype/
p1930
sVdefault_format
p1931
Vapplication/json
p1932
sVdefault_limit
p1933
I20
sVallowed_list_http_methods
p1934
(lp1935
Vget
p1936
assVtemperature
p1937
(dp1938
Vfiltering
p1939
(dp1940
Vflat
p1941
(lp1942
Vexact
p1943
asVend
p1944
(lp1945
Vexact
p1946
asVstart
p1947
(lp1948
Vexact
p1949
asVdatatype
p1950
(lp1951
Vexact
p1952
aVin
p1953
asVtimestamp
p1954
(lp1955
Vrange
p1956
aVgt
p1957
aVgte
p1958
aVlt
p1959
aVlte
p1960
asVno_timestamps
p1961
(lp1962
Vexact
p1963
asVrecord
p1964
(lp1965
Vexact
p1966
aVin
p1967
asVrange
p1968
(lp1969
Vexact
p1970
aVin
p1971
asVuser
p1972
(lp1973
Vexact
p1974
aVin
p1975
asVmax_values
p1976
(lp1977
Vexact
p1978
assg44
g1937
sVallowed_detail_http_methods
p1979
(lp1980
sVfields
p1981
(dp1982
g1941
(dp1983
Vnullable
p1984
I00
sVdefault
p1985
VNo default provided.
p1986
sVreadonly
p1987
I00
sVblank
p1988
I00
sVhelp_text
p1989
V__nodoc__
p1990
sVunique
p1991
I00
sVtype
p1992
Vinteger
p1993
ssg1944
(dp1994
g1984
I00
sg1985
VNo default provided.
p1995
sg1987
I00
sg1988
I00
sg1989
V__nodoc__
p1996
sg1991
I00
sg1992
Vinteger
p1997
ssg1947
(dp1998
g1984
I00
sg1985
VNo default provided.
p1999
sg1987
I00
sg1988
I00
sg1989
V__nodoc__
p2000
sg1991
I00
sg1992
Vinteger
p2001
ssg1950
(dp2002
Vrelated_type
p2003
Vto_one
p2004
sg1984
I00
sg1985
VNo default provided.
p2005
sg1987
I00
sg1988
I01
sg1989
V__nodoc__
p2006
sg1991
I00
sg1992
Vrelated
p2007
ssg1954
(dp2008
g1984
I00
sg1985
VNo default provided.
p2009
sg1987
I00
sg1988
I00
sg1989
V__nodoc__
p2010
sg1991
I00
sg1992
Vinteger
p2011
ssg1961
(dp2012
g1984
I00
sg1985
VNo default provided.
p2013
sg1987
I00
sg1988
I00
sg1989
V__nodoc__
p2014
sg1991
I00
sg1992
Vinteger
p2015
ssg1964
(dp2016
g2003
Vto_one
p2017
sg1984
I01
sg1985
VNo default provided.
p2018
sg1987
I00
sg1988
I01
sg1989
V__nodoc__
p2019
sg1991
I00
sg1992
Vrelated
p2020
ssg1968
(dp2021
g2003
Vto_one
p2022
sg1984
I00
sg1985
VNo default provided.
p2023
sg1987
I00
sg1988
I00
sg1989
V__nodoc__
p2024
sg1991
I00
sg1992
Vrelated
p2025
ssg1972
(dp2026
g2003
Vto_one
p2027
sg1984
I00
sg1985
VNo default provided.
p2028
sg1987
I00
sg1988
I00
sg1989
V__nodoc__
p2029
sg1991
I00
sg1992
Vrelated
p2030
ssg1976
(dp2031
g1984
I00
sg1985
VNo default provided.
p2032
sg1987
I00
sg1988
I00
sg1989
V__nodoc__
p2033
sg1991
I00
sg1992
Vinteger
p2034
sssg101
V/api/v1/temperature/
p2035
sVdefault_format
p2036
Vapplication/json
p2037
sVdefault_limit
p2038
I20
sVallowed_list_http_methods
p2039
(lp2040
Vget
p2041
assVrecord
p2042
(dp2043
Vfiltering
p2044
(dp2045
Vdevice
p2046
(lp2047
Vexact
p2048
aVin
p2049
asVstart
p2050
(lp2051
Vexact
p2052
aVrange
p2053
aVgt
p2054
aVgte
p2055
aVlt
p2056
aVlte
p2057
asVend
p2058
(lp2059
Vexact
p2060
aVrange
p2061
aVgt
p2062
aVgte
p2063
aVlt
p2064
aVlte
p2065
asVid
p2066
(lp2067
Vexact
p2068
aVin
p2069
asVuser
p2070
(lp2071
Vexact
p2072
aVin
p2073
assg44
g2042
sVallowed_detail_http_methods
p2074
(lp2075
Vget
p2076
aVput
p2077
aVpatch
p2078
aVdelete
p2079
asVordering
p2080
(lp2081
Vstart
p2082
asVfields
p2083
(dp2084
Vstatus
p2085
(dp2086
Vnullable
p2087
I00
sVdefault
p2088
VNo default provided.
p2089
sVreadonly
p2090
I01
sVblank
p2091
I00
sVhelp_text
p2092
VOne of "realtime", "realtime_complete", "syncing", "complete", "queued", "processing", "error" or "incomplete".  "Realtime" means that the Record has been created by HxSolo for realtime tracking but hasn't been synced yet.  "Complete" and "incomplete" indicate whether or not the record currently has a complete set of data in the database. "Queued" indicates the record is queued for processing.  "processing" indicates the record is currently being processed. "error" indicates that an error was encountered while processing the record.
p2093
sVunique
p2094
I00
sVtype
p2095
Vstring
p2096
ssVdev_id
p2097
(dp2098
g2087
I00
sg2088
V
sg2090
I00
sg2091
I00
sg2092
Vdev_id: Device ID (phone) 32 char.
p2099
sg2094
I00
sg2095
Vstring
p2100
ssg2058
(dp2101
g2087
I01
sg2088
VNo default provided.
p2102
sg2090
I00
sg2091
I01
sg2092
VRecording end. An integer indicating the number of 256ths of a second that have passed since Jan 1, 1970 UTC, ie. a traditional timestamp, multiplied by 256.
p2103
sg2094
I00
sg2095
Vinteger
p2104
ssVfirmware_rev
p2105
(dp2106
g2087
I00
sg2088
V000
p2107
sg2090
I00
sg2091
I00
sg2092
Vfirmware_rev: Hexoskin Firmware revision, char.
p2108
sg2094
I00
sg2095
Vstring
p2109
ssVsoft_uid
p2110
(dp2111
g2087
I00
sg2088
V
sg2090
I00
sg2091
I00
sg2092
Vsoft_uid: Software UID.
p2112
sg2094
I00
sg2095
Vstring
p2113
ssVsoft_protocole
p2114
(dp2115
g2087
I00
sg2088
I0
sg2090
I00
sg2091
I00
sg2092
VInteger data. Ex: 2673
p2116
sg2094
I00
sg2095
Vinteger
p2117
ssVstart_date
p2118
(dp2119
g2087
I00
sg2088
VNo default provided.
p2120
sg2090
I01
sg2091
I00
sg2092
VA date & time as a string. Ex: "2010-11-10T03:07:43"
p2121
sg2094
I00
sg2095
Vdatetime
p2122
ssVn_uploaded_timelines
p2123
(dp2124
g2087
I00
sg2088
VNo default provided.
p2125
sg2090
I01
sg2091
I00
sg2092
VNumber of timelines currently in the database that are related to this record.
p2126
sg2094
I00
sg2095
Vinteger
p2127
ssg2050
(dp2128
g2087
I01
sg2088
VNo default provided.
p2129
sg2090
I00
sg2091
I01
sg2092
VRecording start. An integer indicating the number of 256ths of a second that have passed since Jan 1, 1970 UTC, ie. a traditional timestamp, multiplied by 256.
p2130
sg2094
I00
sg2095
Vinteger
p2131
ssg2070
(dp2132
Vrelated_type
p2133
Vto_one
p2134
sg2087
I00
sg2088
VNo default provided.
p2135
sg2090
I00
sg2091
I00
sg2092
VA [:r:user].  Maybe specified by URI, email, or ID.  Using a URI is recommended.
p2136
sg2094
I00
sg2095
Vrelated
p2137
ssg2046
(dp2138
g2133
Vto_one
p2139
sg2087
I00
sg2088
VNo default provided.
p2140
sg2090
I00
sg2091
I00
sg2092
VA reference to [:r:device].  Maybe specified by URI or ID.  Using a URI is recommended.
p2141
sg2094
I00
sg2095
Vrelated
p2142
ssVnpages
p2143
(dp2144
g2087
I01
sg2088
I0
sg2090
I00
sg2091
I00
sg2092
VNumber of pages in the record.
p2145
sg2094
I00
sg2095
Vinteger
p2146
ssVdata
p2147
(dp2148
g2087
I00
sg2088
V
sg2090
I00
sg2091
I01
sg2092
VRecording additional info.
p2149
sg2094
I00
sg2095
Vstring
p2150
ssg2066
(dp2151
g2087
I00
sg2088
VNo default provided.
p2152
sg2090
I01
sg2091
I00
sg2092
VThe primary key for this resource. Integer data. Ex: 2673
p2153
sg2094
I01
sg2095
Vinteger
p2154
ssVdata_status
p2155
(dp2156
g2087
I01
sg2088
VNo default provided.
p2157
sg2090
I01
sg2091
I00
sg2092
VInformation on the underlying data.
p2158
sg2094
I00
sg2095
Vstring
p2159
ssVresource_uri
p2160
(dp2161
g2087
I00
sg2088
VNo default provided.
p2162
sg2090
I01
sg2091
I00
sg2092
VThe unique URI where the object resides.
p2163
sg2094
I00
sg2095
Vstring
p2164
sssg101
V/api/v1/record/
p2165
sVdefault_format
p2166
Vapplication/json
p2167
sVdefault_limit
p2168
I20
sVallowed_list_http_methods
p2169
(lp2170
Vget
p2171
aVpost
p2172
assVsharetype
p2173
(dp2174
g44
g2173
sVallowed_detail_http_methods
p2175
(lp2176
Vget
p2177
asVfields
p2178
(dp2179
Vresource_uri
p2180
(dp2181
Vnullable
p2182
I00
sVdefault
p2183
VNo default provided.
p2184
sVreadonly
p2185
I01
sVblank
p2186
I00
sVhelp_text
p2187
VThe unique URI where the object resides.
p2188
sVunique
p2189
I00
sVtype
p2190
Vstring
p2191
ssVid
p2192
(dp2193
g2182
I00
sg2183
VNo default provided.
p2194
sg2185
I01
sg2186
I00
sg2187
VThe primary key for this resource. Integer data. Ex: 2673
p2195
sg2189
I00
sg2190
Vinteger
p2196
ssVname
p2197
(dp2198
g2182
I00
sg2183
VNo default provided.
p2199
sg2185
I00
sg2186
I00
sg2187
VUnicode string data. Ex: "Hello World"
p2200
sg2189
I00
sg2190
Vstring
p2201
sssg101
V/api/v1/sharetype/
p2202
sVdefault_format
p2203
Vapplication/json
p2204
sVdefault_limit
p2205
I20
sVallowed_list_http_methods
p2206
(lp2207
Vget
p2208
assVheartratestatus
p2209
(dp2210
Vfiltering
p2211
(dp2212
Vflat
p2213
(lp2214
Vexact
p2215
asVend
p2216
(lp2217
Vexact
p2218
asVstart
p2219
(lp2220
Vexact
p2221
asVdatatype
p2222
(lp2223
Vexact
p2224
aVin
p2225
asVtimestamp
p2226
(lp2227
Vrange
p2228
aVgt
p2229
aVgte
p2230
aVlt
p2231
aVlte
p2232
asVno_timestamps
p2233
(lp2234
Vexact
p2235
asVrecord
p2236
(lp2237
Vexact
p2238
aVin
p2239
asVrange
p2240
(lp2241
Vexact
p2242
aVin
p2243
asVuser
p2244
(lp2245
Vexact
p2246
aVin
p2247
asVmax_values
p2248
(lp2249
Vexact
p2250
assg44
g2209
sVallowed_detail_http_methods
p2251
(lp2252
sVfields
p2253
(dp2254
g2213
(dp2255
Vnullable
p2256
I00
sVdefault
p2257
VNo default provided.
p2258
sVreadonly
p2259
I00
sVblank
p2260
I00
sVhelp_text
p2261
V__nodoc__
p2262
sVunique
p2263
I00
sVtype
p2264
Vinteger
p2265
ssg2216
(dp2266
g2256
I00
sg2257
VNo default provided.
p2267
sg2259
I00
sg2260
I00
sg2261
V__nodoc__
p2268
sg2263
I00
sg2264
Vinteger
p2269
ssg2219
(dp2270
g2256
I00
sg2257
VNo default provided.
p2271
sg2259
I00
sg2260
I00
sg2261
V__nodoc__
p2272
sg2263
I00
sg2264
Vinteger
p2273
ssg2222
(dp2274
Vrelated_type
p2275
Vto_one
p2276
sg2256
I00
sg2257
VNo default provided.
p2277
sg2259
I00
sg2260
I01
sg2261
V__nodoc__
p2278
sg2263
I00
sg2264
Vrelated
p2279
ssg2226
(dp2280
g2256
I00
sg2257
VNo default provided.
p2281
sg2259
I00
sg2260
I00
sg2261
V__nodoc__
p2282
sg2263
I00
sg2264
Vinteger
p2283
ssg2233
(dp2284
g2256
I00
sg2257
VNo default provided.
p2285
sg2259
I00
sg2260
I00
sg2261
V__nodoc__
p2286
sg2263
I00
sg2264
Vinteger
p2287
ssg2236
(dp2288
g2275
Vto_one
p2289
sg2256
I01
sg2257
VNo default provided.
p2290
sg2259
I00
sg2260
I01
sg2261
V__nodoc__
p2291
sg2263
I00
sg2264
Vrelated
p2292
ssg2240
(dp2293
g2275
Vto_one
p2294
sg2256
I00
sg2257
VNo default provided.
p2295
sg2259
I00
sg2260
I00
sg2261
V__nodoc__
p2296
sg2263
I00
sg2264
Vrelated
p2297
ssg2244
(dp2298
g2275
Vto_one
p2299
sg2256
I00
sg2257
VNo default provided.
p2300
sg2259
I00
sg2260
I00
sg2261
V__nodoc__
p2301
sg2263
I00
sg2264
Vrelated
p2302
ssg2248
(dp2303
g2256
I00
sg2257
VNo default provided.
p2304
sg2259
I00
sg2260
I00
sg2261
V__nodoc__
p2305
sg2263
I00
sg2264
Vinteger
p2306
sssg101
V/api/v1/heartratestatus/
p2307
sVdefault_format
p2308
Vapplication/json
p2309
sVdefault_limit
p2310
I20
sVallowed_list_http_methods
p2311
(lp2312
Vget
p2313
assVhrv
p2314
(dp2315
Vfiltering
p2316
(dp2317
Vflat
p2318
(lp2319
Vexact
p2320
asVend
p2321
(lp2322
Vexact
p2323
asVstart
p2324
(lp2325
Vexact
p2326
asVdatatype
p2327
(lp2328
Vexact
p2329
aVin
p2330
asVtimestamp
p2331
(lp2332
Vrange
p2333
aVgt
p2334
aVgte
p2335
aVlt
p2336
aVlte
p2337
asVno_timestamps
p2338
(lp2339
Vexact
p2340
asVrecord
p2341
(lp2342
Vexact
p2343
aVin
p2344
asVrange
p2345
(lp2346
Vexact
p2347
aVin
p2348
asVuser
p2349
(lp2350
Vexact
p2351
aVin
p2352
asVmax_values
p2353
(lp2354
Vexact
p2355
assg44
g2314
sVallowed_detail_http_methods
p2356
(lp2357
sVfields
p2358
(dp2359
g2318
(dp2360
Vnullable
p2361
I00
sVdefault
p2362
VNo default provided.
p2363
sVreadonly
p2364
I00
sVblank
p2365
I00
sVhelp_text
p2366
V__nodoc__
p2367
sVunique
p2368
I00
sVtype
p2369
Vinteger
p2370
ssg2321
(dp2371
g2361
I00
sg2362
VNo default provided.
p2372
sg2364
I00
sg2365
I00
sg2366
V__nodoc__
p2373
sg2368
I00
sg2369
Vinteger
p2374
ssg2324
(dp2375
g2361
I00
sg2362
VNo default provided.
p2376
sg2364
I00
sg2365
I00
sg2366
V__nodoc__
p2377
sg2368
I00
sg2369
Vinteger
p2378
ssg2327
(dp2379
Vrelated_type
p2380
Vto_one
p2381
sg2361
I00
sg2362
VNo default provided.
p2382
sg2364
I00
sg2365
I01
sg2366
V__nodoc__
p2383
sg2368
I00
sg2369
Vrelated
p2384
ssg2331
(dp2385
g2361
I00
sg2362
VNo default provided.
p2386
sg2364
I00
sg2365
I00
sg2366
V__nodoc__
p2387
sg2368
I00
sg2369
Vinteger
p2388
ssg2338
(dp2389
g2361
I00
sg2362
VNo default provided.
p2390
sg2364
I00
sg2365
I00
sg2366
V__nodoc__
p2391
sg2368
I00
sg2369
Vinteger
p2392
ssg2341
(dp2393
g2380
Vto_one
p2394
sg2361
I01
sg2362
VNo default provided.
p2395
sg2364
I00
sg2365
I01
sg2366
V__nodoc__
p2396
sg2368
I00
sg2369
Vrelated
p2397
ssg2345
(dp2398
g2380
Vto_one
p2399
sg2361
I00
sg2362
VNo default provided.
p2400
sg2364
I00
sg2365
I00
sg2366
V__nodoc__
p2401
sg2368
I00
sg2369
Vrelated
p2402
ssg2349
(dp2403
g2380
Vto_one
p2404
sg2361
I00
sg2362
VNo default provided.
p2405
sg2364
I00
sg2365
I00
sg2366
V__nodoc__
p2406
sg2368
I00
sg2369
Vrelated
p2407
ssg2353
(dp2408
g2361
I00
sg2362
VNo default provided.
p2409
sg2364
I00
sg2365
I00
sg2366
V__nodoc__
p2410
sg2368
I00
sg2369
Vinteger
p2411
sssg101
V/api/v1/hrv/
p2412
sVdefault_format
p2413
Vapplication/json
p2414
sVdefault_limit
p2415
I20
sVallowed_list_http_methods
p2416
(lp2417
Vget
p2418
assVsdann
p2419
(dp2420
Vfiltering
p2421
(dp2422
Vflat
p2423
(lp2424
Vexact
p2425
asVend
p2426
(lp2427
Vexact
p2428
asVstart
p2429
(lp2430
Vexact
p2431
asVdatatype
p2432
(lp2433
Vexact
p2434
aVin
p2435
asVtimestamp
p2436
(lp2437
Vrange
p2438
aVgt
p2439
aVgte
p2440
aVlt
p2441
aVlte
p2442
asVno_timestamps
p2443
(lp2444
Vexact
p2445
asVrecord
p2446
(lp2447
Vexact
p2448
aVin
p2449
asVrange
p2450
(lp2451
Vexact
p2452
aVin
p2453
asVuser
p2454
(lp2455
Vexact
p2456
aVin
p2457
asVmax_values
p2458
(lp2459
Vexact
p2460
assg44
g2419
sVallowed_detail_http_methods
p2461
(lp2462
sVfields
p2463
(dp2464
g2423
(dp2465
Vnullable
p2466
I00
sVdefault
p2467
VNo default provided.
p2468
sVreadonly
p2469
I00
sVblank
p2470
I00
sVhelp_text
p2471
V__nodoc__
p2472
sVunique
p2473
I00
sVtype
p2474
Vinteger
p2475
ssg2426
(dp2476
g2466
I00
sg2467
VNo default provided.
p2477
sg2469
I00
sg2470
I00
sg2471
V__nodoc__
p2478
sg2473
I00
sg2474
Vinteger
p2479
ssg2429
(dp2480
g2466
I00
sg2467
VNo default provided.
p2481
sg2469
I00
sg2470
I00
sg2471
V__nodoc__
p2482
sg2473
I00
sg2474
Vinteger
p2483
ssg2432
(dp2484
Vrelated_type
p2485
Vto_one
p2486
sg2466
I00
sg2467
VNo default provided.
p2487
sg2469
I00
sg2470
I01
sg2471
V__nodoc__
p2488
sg2473
I00
sg2474
Vrelated
p2489
ssg2436
(dp2490
g2466
I00
sg2467
VNo default provided.
p2491
sg2469
I00
sg2470
I00
sg2471
V__nodoc__
p2492
sg2473
I00
sg2474
Vinteger
p2493
ssg2443
(dp2494
g2466
I00
sg2467
VNo default provided.
p2495
sg2469
I00
sg2470
I00
sg2471
V__nodoc__
p2496
sg2473
I00
sg2474
Vinteger
p2497
ssg2446
(dp2498
g2485
Vto_one
p2499
sg2466
I01
sg2467
VNo default provided.
p2500
sg2469
I00
sg2470
I01
sg2471
V__nodoc__
p2501
sg2473
I00
sg2474
Vrelated
p2502
ssg2450
(dp2503
g2485
Vto_one
p2504
sg2466
I00
sg2467
VNo default provided.
p2505
sg2469
I00
sg2470
I00
sg2471
V__nodoc__
p2506
sg2473
I00
sg2474
Vrelated
p2507
ssg2454
(dp2508
g2485
Vto_one
p2509
sg2466
I00
sg2467
VNo default provided.
p2510
sg2469
I00
sg2470
I00
sg2471
V__nodoc__
p2511
sg2473
I00
sg2474
Vrelated
p2512
ssg2458
(dp2513
g2466
I00
sg2467
VNo default provided.
p2514
sg2469
I00
sg2470
I00
sg2471
V__nodoc__
p2515
sg2473
I00
sg2474
Vinteger
p2516
sssg101
V/api/v1/sdann/
p2517
sVdefault_format
p2518
Vapplication/json
p2519
sVdefault_limit
p2520
I20
sVallowed_list_http_methods
p2521
(lp2522
Vget
p2523
assVreport_template
p2524
(dp2525
Vfiltering
p2526
(dp2527
Vrecord
p2528
(lp2529
Vexact
p2530
aVin
p2531
asVrange
p2532
(lp2533
Vexact
p2534
aVin
p2535
asVend
p2536
(lp2537
Vexact
p2538
asVtrainingsession
p2539
(lp2540
Vexact
p2541
aVin
p2542
asVstart
p2543
(lp2544
Vexact
p2545
assg44
g2524
sVallowed_detail_http_methods
p2546
(lp2547
Vget
p2548
aVput
p2549
aVpatch
p2550
aVdelete
p2551
asVfields
p2552
(dp2553
Vname
p2554
(dp2555
Vnullable
p2556
I00
sVdefault
p2557
VNo default provided.
p2558
sVreadonly
p2559
I00
sVblank
p2560
I00
sVhelp_text
p2561
VName of template
p2562
sVunique
p2563
I00
sVtype
p2564
Vstring
p2565
ssVtitle
p2566
(dp2567
g2556
I00
sg2557
V
sg2559
I00
sg2560
I01
sg2561
VUnicode string data. Ex: "Hello World"
p2568
sg2563
I00
sg2564
Vstring
p2569
ssVextra_options
p2570
(dp2571
g2556
I00
sg2557
V
sg2559
I00
sg2560
I01
sg2561
VThis is used only with the report "list" and "list_tables", enter a comma-separated list of template ids that you want to insert as sub_resource
p2572
sg2563
I00
sg2564
Vstring
p2573
ssVmetric
p2574
(dp2575
Vrelated_type
p2576
Vto_many
p2577
sg2556
I00
sg2557
VNo default provided.
p2578
sg2559
I00
sg2560
I00
sg2561
VMany related resources. Can be either a list of URIs or list of individually nested resource data.
p2579
sg2563
I00
sg2564
Vrelated
p2580
ssVnote
p2581
(dp2582
g2556
I00
sg2557
V
sg2559
I00
sg2560
I01
sg2561
VUnicode string data. Ex: "Hello World"
p2583
sg2563
I00
sg2564
Vstring
p2584
ssVuser
p2585
(dp2586
g2576
Vto_one
p2587
sg2556
I01
sg2557
VNo default provided.
p2588
sg2559
I00
sg2560
I00
sg2561
V__nodoc__
p2589
sg2563
I00
sg2564
Vrelated
p2590
ssVfilters
p2591
(dp2592
g2556
I01
sg2557
V
sg2559
I00
sg2560
I00
sg2561
VEnter a dictionnary of selected filtering option Example: {"sort":"activitytype"}. 
p2593
sg2563
I00
sg2564
Vstring
p2594
ssVreport_type
p2595
(dp2596
g2556
I00
sg2557
VNo default provided.
p2597
sg2559
I00
sg2560
I00
sg2561
VFunction used to process raw data
p2598
sg2563
I00
sg2564
Vstring
p2599
ssVid
p2600
(dp2601
g2556
I00
sg2557
V
sg2559
I00
sg2560
I01
sg2561
VThe primary key for this resource. The primary key for this resource. Integer data. Ex: 2673
p2602
sg2563
I01
sg2564
Vinteger
p2603
ssVresource_uri
p2604
(dp2605
g2556
I00
sg2557
VNo default provided.
p2606
sg2559
I01
sg2560
I00
sg2561
VThe unique URI where the object resides.
p2607
sg2563
I00
sg2564
Vstring
p2608
sssg101
V/api/v1/report_template/
p2609
sVdefault_format
p2610
Vapplication/json
p2611
sVdefault_limit
p2612
I20
sVallowed_list_http_methods
p2613
(lp2614
Vget
p2615
aVput
p2616
aVpost
p2617
aVpatch
p2618
assVoauthclient
p2619
(dp2620
g44
g2619
sVallowed_detail_http_methods
p2621
(lp2622
Vget
p2623
aVput
p2624
aVpatch
p2625
aVdelete
p2626
asVfields
p2627
(dp2628
Vname
p2629
(dp2630
Vnullable
p2631
I00
sVdefault
p2632
VNo default provided.
p2633
sVreadonly
p2634
I00
sVblank
p2635
I00
sVhelp_text
p2636
VUnicode string data. Ex: "Hello World"
p2637
sVunique
p2638
I00
sVtype
p2639
Vstring
p2640
ssVdefault_realm
p2641
(dp2642
Vrelated_type
p2643
Vto_one
p2644
sg2631
I00
sg2632
VNo default provided.
p2645
sg2634
I00
sg2635
I00
sg2636
VA reference to [:r:default_realm].  Maybe specified by URI or ID.  Using a URI is recommended.
p2646
sg2638
I00
sg2639
Vrelated
p2647
ssVuris
p2648
(dp2649
g2631
I00
sg2632
V
sg2634
I00
sg2635
I00
sg2636
VUnicode string data. Ex: "Hello World"
p2650
sg2638
I00
sg2639
Vstring
p2651
ssVuser
p2652
(dp2653
g2643
Vto_one
p2654
sg2631
I00
sg2632
VNo default provided.
p2655
sg2634
I00
sg2635
I00
sg2636
VA [:r:user].  Maybe specified by URI, email, or ID.  Using a URI is recommended.
p2656
sg2638
I00
sg2639
Vrelated
p2657
ssVrealms
p2658
(dp2659
g2643
Vto_many
p2660
sg2631
I00
sg2632
VNo default provided.
p2661
sg2634
I00
sg2635
I00
sg2636
VMany related resources. Can be either a list of URIs or list of individually nested resource data.
p2662
sg2638
I00
sg2639
Vrelated
p2663
ssVclient_secret
p2664
(dp2665
g2631
I00
sg2632
V
sg2634
I00
sg2635
I01
sg2636
VFor HMAC-SHA1 signing. A value will be supplied automatically if left blank.
p2666
sg2638
I00
sg2639
Vstring
p2667
ssVrsa_cert
p2668
(dp2669
g2631
I00
sg2632
V
sg2634
I00
sg2635
I01
sg2636
VPublic SHA1 Certificate for RSA-SHA1 signing.
p2670
sg2638
I00
sg2639
Vstring
p2671
ssVid
p2672
(dp2673
g2631
I00
sg2632
VNo default provided.
p2674
sg2634
I01
sg2635
I00
sg2636
VThe primary key for this resource. Integer data. Ex: 2673
p2675
sg2638
I01
sg2639
Vinteger
p2676
ssVresource_uri
p2677
(dp2678
g2631
I00
sg2632
VNo default provided.
p2679
sg2634
I01
sg2635
I00
sg2636
VThe unique URI where the object resides.
p2680
sg2638
I00
sg2639
Vstring
p2681
sssg101
V/api/v1/oauthclient/
p2682
sVdefault_format
p2683
Vapplication/json
p2684
sVdefault_limit
p2685
I20
sVallowed_list_http_methods
p2686
(lp2687
Vget
p2688
assVstep
p2689
(dp2690
Vfiltering
p2691
(dp2692
Vflat
p2693
(lp2694
Vexact
p2695
asVend
p2696
(lp2697
Vexact
p2698
asVstart
p2699
(lp2700
Vexact
p2701
asVdatatype
p2702
(lp2703
Vexact
p2704
aVin
p2705
asVtimestamp
p2706
(lp2707
Vrange
p2708
aVgt
p2709
aVgte
p2710
aVlt
p2711
aVlte
p2712
asVno_timestamps
p2713
(lp2714
Vexact
p2715
asVrecord
p2716
(lp2717
Vexact
p2718
aVin
p2719
asVrange
p2720
(lp2721
Vexact
p2722
aVin
p2723
asVuser
p2724
(lp2725
Vexact
p2726
aVin
p2727
asVmax_values
p2728
(lp2729
Vexact
p2730
assg44
g2689
sVallowed_detail_http_methods
p2731
(lp2732
sVfields
p2733
(dp2734
g2693
(dp2735
Vnullable
p2736
I00
sVdefault
p2737
VNo default provided.
p2738
sVreadonly
p2739
I00
sVblank
p2740
I00
sVhelp_text
p2741
V__nodoc__
p2742
sVunique
p2743
I00
sVtype
p2744
Vinteger
p2745
ssg2696
(dp2746
g2736
I00
sg2737
VNo default provided.
p2747
sg2739
I00
sg2740
I00
sg2741
V__nodoc__
p2748
sg2743
I00
sg2744
Vinteger
p2749
ssg2699
(dp2750
g2736
I00
sg2737
VNo default provided.
p2751
sg2739
I00
sg2740
I00
sg2741
V__nodoc__
p2752
sg2743
I00
sg2744
Vinteger
p2753
ssg2702
(dp2754
Vrelated_type
p2755
Vto_one
p2756
sg2736
I00
sg2737
VNo default provided.
p2757
sg2739
I00
sg2740
I01
sg2741
V__nodoc__
p2758
sg2743
I00
sg2744
Vrelated
p2759
ssg2706
(dp2760
g2736
I00
sg2737
VNo default provided.
p2761
sg2739
I00
sg2740
I00
sg2741
V__nodoc__
p2762
sg2743
I00
sg2744
Vinteger
p2763
ssg2713
(dp2764
g2736
I00
sg2737
VNo default provided.
p2765
sg2739
I00
sg2740
I00
sg2741
V__nodoc__
p2766
sg2743
I00
sg2744
Vinteger
p2767
ssg2716
(dp2768
g2755
Vto_one
p2769
sg2736
I01
sg2737
VNo default provided.
p2770
sg2739
I00
sg2740
I01
sg2741
V__nodoc__
p2771
sg2743
I00
sg2744
Vrelated
p2772
ssg2720
(dp2773
g2755
Vto_one
p2774
sg2736
I00
sg2737
VNo default provided.
p2775
sg2739
I00
sg2740
I00
sg2741
V__nodoc__
p2776
sg2743
I00
sg2744
Vrelated
p2777
ssg2724
(dp2778
g2755
Vto_one
p2779
sg2736
I00
sg2737
VNo default provided.
p2780
sg2739
I00
sg2740
I00
sg2741
V__nodoc__
p2781
sg2743
I00
sg2744
Vrelated
p2782
ssg2728
(dp2783
g2736
I00
sg2737
VNo default provided.
p2784
sg2739
I00
sg2740
I00
sg2741
V__nodoc__
p2785
sg2743
I00
sg2744
Vinteger
p2786
sssg101
V/api/v1/step/
p2787
sVdefault_format
p2788
Vapplication/json
p2789
sVdefault_limit
p2790
I20
sVallowed_list_http_methods
p2791
(lp2792
Vget
p2793
assVcreateuserrequest
p2794
(dp2795
g44
g2794
sVallowed_detail_http_methods
p2796
(lp2797
Vget
p2798
aVput
p2799
asVfields
p2800
(dp2801
Vusername
p2802
(dp2803
Vnullable
p2804
I00
sVdefault
p2805
VNo default provided.
p2806
sVreadonly
p2807
I01
sVblank
p2808
I01
sVhelp_text
p2809
VSet to be the same as email.  Left in place for historical reasons.
p2810
sVunique
p2811
I00
sVtype
p2812
Vstring
p2813
ssVfirst_name
p2814
(dp2815
g2804
I00
sg2805
V
sg2807
I00
sg2808
I01
sg2809
VUnicode string data. Ex: "Hello World"
p2816
sg2811
I00
sg2812
Vstring
p2817
ssVlast_name
p2818
(dp2819
g2804
I00
sg2805
V
sg2807
I00
sg2808
I01
sg2809
VUnicode string data. Ex: "Hello World"
p2820
sg2811
I00
sg2812
Vstring
p2821
ssVid
p2822
(dp2823
g2804
I00
sg2805
VNo default provided.
p2824
sg2807
I01
sg2808
I00
sg2809
VThe primary key for this resource. The primary key for this resource. Integer data. Ex: 2673
p2825
sg2811
I01
sg2812
Vinteger
p2826
ssVpassword
p2827
(dp2828
g2804
I01
sg2805
VNo default provided.
p2829
sg2807
I00
sg2808
I01
sg2809
VUnicode string data. Ex: "Hello World"
p2830
sg2811
I00
sg2812
Vstring
p2831
ssVemail
p2832
(dp2833
g2804
I00
sg2805
VNo default provided.
p2834
sg2807
I00
sg2808
I00
sg2809
VUnicode string data. Ex: "Hello World"
p2835
sg2811
I00
sg2812
Vstring
p2836
ssVresource_uri
p2837
(dp2838
g2804
I00
sg2805
VNo default provided.
p2839
sg2807
I01
sg2808
I00
sg2809
VThe unique URI where the object resides.
p2840
sg2811
I00
sg2812
Vstring
p2841
sssg101
V/api/v1/createuserrequest/
p2842
sVdefault_format
p2843
Vapplication/json
p2844
sVdefault_limit
p2845
I20
sVallowed_list_http_methods
p2846
(lp2847
Vpost
p2848
assVinspiration
p2849
(dp2850
Vfiltering
p2851
(dp2852
Vflat
p2853
(lp2854
Vexact
p2855
asVend
p2856
(lp2857
Vexact
p2858
asVstart
p2859
(lp2860
Vexact
p2861
asVdatatype
p2862
(lp2863
Vexact
p2864
aVin
p2865
asVtimestamp
p2866
(lp2867
Vrange
p2868
aVgt
p2869
aVgte
p2870
aVlt
p2871
aVlte
p2872
asVno_timestamps
p2873
(lp2874
Vexact
p2875
asVrecord
p2876
(lp2877
Vexact
p2878
aVin
p2879
asVrange
p2880
(lp2881
Vexact
p2882
aVin
p2883
asVuser
p2884
(lp2885
Vexact
p2886
aVin
p2887
asVmax_values
p2888
(lp2889
Vexact
p2890
assg44
g2849
sVallowed_detail_http_methods
p2891
(lp2892
sVfields
p2893
(dp2894
g2853
(dp2895
Vnullable
p2896
I00
sVdefault
p2897
VNo default provided.
p2898
sVreadonly
p2899
I00
sVblank
p2900
I00
sVhelp_text
p2901
V__nodoc__
p2902
sVunique
p2903
I00
sVtype
p2904
Vinteger
p2905
ssg2856
(dp2906
g2896
I00
sg2897
VNo default provided.
p2907
sg2899
I00
sg2900
I00
sg2901
V__nodoc__
p2908
sg2903
I00
sg2904
Vinteger
p2909
ssg2859
(dp2910
g2896
I00
sg2897
VNo default provided.
p2911
sg2899
I00
sg2900
I00
sg2901
V__nodoc__
p2912
sg2903
I00
sg2904
Vinteger
p2913
ssg2862
(dp2914
Vrelated_type
p2915
Vto_one
p2916
sg2896
I00
sg2897
VNo default provided.
p2917
sg2899
I00
sg2900
I01
sg2901
V__nodoc__
p2918
sg2903
I00
sg2904
Vrelated
p2919
ssg2866
(dp2920
g2896
I00
sg2897
VNo default provided.
p2921
sg2899
I00
sg2900
I00
sg2901
V__nodoc__
p2922
sg2903
I00
sg2904
Vinteger
p2923
ssg2873
(dp2924
g2896
I00
sg2897
VNo default provided.
p2925
sg2899
I00
sg2900
I00
sg2901
V__nodoc__
p2926
sg2903
I00
sg2904
Vinteger
p2927
ssg2876
(dp2928
g2915
Vto_one
p2929
sg2896
I01
sg2897
VNo default provided.
p2930
sg2899
I00
sg2900
I01
sg2901
V__nodoc__
p2931
sg2903
I00
sg2904
Vrelated
p2932
ssg2880
(dp2933
g2915
Vto_one
p2934
sg2896
I00
sg2897
VNo default provided.
p2935
sg2899
I00
sg2900
I00
sg2901
V__nodoc__
p2936
sg2903
I00
sg2904
Vrelated
p2937
ssg2884
(dp2938
g2915
Vto_one
p2939
sg2896
I00
sg2897
VNo default provided.
p2940
sg2899
I00
sg2900
I00
sg2901
V__nodoc__
p2941
sg2903
I00
sg2904
Vrelated
p2942
ssg2888
(dp2943
g2896
I00
sg2897
VNo default provided.
p2944
sg2899
I00
sg2900
I00
sg2901
V__nodoc__
p2945
sg2903
I00
sg2904
Vinteger
p2946
sssg101
V/api/v1/inspiration/
p2947
sVdefault_format
p2948
Vapplication/json
p2949
sVdefault_limit
p2950
I20
sVallowed_list_http_methods
p2951
(lp2952
Vget
p2953
assVthresholdnotificationtrigger
p2954
(dp2955
g44
g2954
sVallowed_detail_http_methods
p2956
(lp2957
Vget
p2958
aVput
p2959
aVpatch
p2960
aVdelete
p2961
asVfields
p2962
(dp2963
Vthreshold_value
p2964
(dp2965
Vnullable
p2966
I00
sVdefault
p2967
VNo default provided.
p2968
sVreadonly
p2969
I00
sVblank
p2970
I00
sVhelp_text
p2971
VThe threshold at which a trigger is raised.<ul><li class="help">heart rate: beart/min</li><li class="help">breathing rate: breath/min</li><li class="help">minute ventilation: mL/min</li><li class="help">tidal volume: mL/respiration</li><li class="help">activity: G</li><li class="help">cadence: step/min</li><li class="help">SPO2: breath/min</li><li class="help">temperature: degrees celcius</li><li class="help">BP: mmHg </li></ul>
p2972
sVunique
p2973
I00
sVtype
p2974
Vdecimal
p2975
ssVdescription
p2976
(dp2977
g2966
I00
sg2967
V
sg2969
I00
sg2970
I01
sg2971
VUnicode string data. Ex: "Hello World"
p2978
sg2973
I00
sg2974
Vstring
p2979
ssVdatatype
p2980
(dp2981
Vrelated_type
p2982
Vto_one
p2983
sg2966
I00
sg2967
VNo default provided.
p2984
sg2969
I00
sg2970
I00
sg2971
VA reference to [:r:datatype].  Maybe specified by URI or ID.  Using a URI is recommended.
p2985
sg2973
I00
sg2974
Vrelated
p2986
ssVthreshold_envelope
p2987
(dp2988
g2966
I00
sg2967
I15360
sg2969
I00
sg2970
I01
sg2971
VPeriod of time in hexoseconds within which no more than one notification will be sent.
p2989
sg2973
I00
sg2974
Vinteger
p2990
ssVactivitytype
p2991
(dp2992
g2982
Vto_many
p2993
sg2966
I01
sg2967
VNo default provided.
p2994
sg2969
I00
sg2970
I00
sg2971
VMany related resources. Can be either a list of URIs or list of individually nested resource data.
p2995
sg2973
I00
sg2974
Vrelated
p2996
ssVname
p2997
(dp2998
g2966
I00
sg2967
VNo default provided.
p2999
sg2969
I00
sg2970
I00
sg2971
VName of the trigger.
p3000
sg2973
I00
sg2974
Vstring
p3001
ssVthreshold_relative_to
p3002
(dp3003
g2966
I00
sg2967
V
sg2969
I00
sg2970
I01
sg2971
VUnicode string data. Ex: "Hello World"
p3004
sg2973
I00
sg2974
Vstring
p3005
ssVuser
p3006
(dp3007
g2982
Vto_one
p3008
sg2966
I00
sg2967
VNo default provided.
p3009
sg2969
I00
sg2970
I00
sg2971
VThe user that will be notified.
p3010
sg2973
I00
sg2974
Vrelated
p3011
ssVthreshold_type
p3012
(dp3013
g2966
I00
sg2967
VNo default provided.
p3014
sg2969
I00
sg2970
I00
sg2971
V<ul><li class="help">exceeds: the trigger is raised if the user exceed the specified value</li><li class="help">falls bellow: the trigger is raised if the user falls bellow the specified value</li><li class="help">is exactly: the trigger is raised if the user hit the specified value</li><li class="help">increase more than: the trigger is raised if in the previous 5 seconds the derivative of the user value increases by more than the threshold value.<br />--- Example. If threshold=4, the trigger is raised if the heart rate increases by more than 20 bpm in the previous 5 seconds</li> <li class="help">decrease more than: a trigger is raised if, in the previous 5 seconds, the derivative of the user value decreases by more than the threshold value.<br />--- Example. If threshold=4, the trigger is raised if the heart rate decreases by more than 20 bpm in the previous 5 seconds</li></ul>
p3015
sg2973
I00
sg2974
Vstring
p3016
ssVusers
p3017
(dp3018
g2982
Vto_many
p3019
sg2966
I00
sg2967
VNo default provided.
p3020
sg2969
I00
sg2970
I00
sg2971
VA list of [:r:user]s specified by URI.
p3021
sg2973
I00
sg2974
Vrelated
p3022
ssVid
p3023
(dp3024
g2966
I00
sg2967
VNo default provided.
p3025
sg2969
I01
sg2970
I00
sg2971
VThe primary key for this resource. Integer data. Ex: 2673
p3026
sg2973
I01
sg2974
Vinteger
p3027
ssVresource_uri
p3028
(dp3029
g2966
I00
sg2967
VNo default provided.
p3030
sg2969
I01
sg2970
I00
sg2971
VThe unique URI where the object resides.
p3031
sg2973
I00
sg2974
Vstring
p3032
sssg101
V/api/v1/thresholdnotificationtrigger/
p3033
sVdefault_format
p3034
Vapplication/json
p3035
sVdefault_limit
p3036
I20
sVallowed_list_http_methods
p3037
(lp3038
Vget
p3039
aVpost
p3040
assVspo2
p3041
(dp3042
Vfiltering
p3043
(dp3044
Vflat
p3045
(lp3046
Vexact
p3047
asVend
p3048
(lp3049
Vexact
p3050
asVstart
p3051
(lp3052
Vexact
p3053
asVdatatype
p3054
(lp3055
Vexact
p3056
aVin
p3057
asVtimestamp
p3058
(lp3059
Vrange
p3060
aVgt
p3061
aVgte
p3062
aVlt
p3063
aVlte
p3064
asVno_timestamps
p3065
(lp3066
Vexact
p3067
asVrecord
p3068
(lp3069
Vexact
p3070
aVin
p3071
asVrange
p3072
(lp3073
Vexact
p3074
aVin
p3075
asVuser
p3076
(lp3077
Vexact
p3078
aVin
p3079
asVmax_values
p3080
(lp3081
Vexact
p3082
assg44
g3041
sVallowed_detail_http_methods
p3083
(lp3084
sVfields
p3085
(dp3086
g3045
(dp3087
Vnullable
p3088
I00
sVdefault
p3089
VNo default provided.
p3090
sVreadonly
p3091
I00
sVblank
p3092
I00
sVhelp_text
p3093
V__nodoc__
p3094
sVunique
p3095
I00
sVtype
p3096
Vinteger
p3097
ssg3048
(dp3098
g3088
I00
sg3089
VNo default provided.
p3099
sg3091
I00
sg3092
I00
sg3093
V__nodoc__
p3100
sg3095
I00
sg3096
Vinteger
p3101
ssg3051
(dp3102
g3088
I00
sg3089
VNo default provided.
p3103
sg3091
I00
sg3092
I00
sg3093
V__nodoc__
p3104
sg3095
I00
sg3096
Vinteger
p3105
ssg3054
(dp3106
Vrelated_type
p3107
Vto_one
p3108
sg3088
I00
sg3089
VNo default provided.
p3109
sg3091
I00
sg3092
I01
sg3093
V__nodoc__
p3110
sg3095
I00
sg3096
Vrelated
p3111
ssg3058
(dp3112
g3088
I00
sg3089
VNo default provided.
p3113
sg3091
I00
sg3092
I00
sg3093
V__nodoc__
p3114
sg3095
I00
sg3096
Vinteger
p3115
ssg3065
(dp3116
g3088
I00
sg3089
VNo default provided.
p3117
sg3091
I00
sg3092
I00
sg3093
V__nodoc__
p3118
sg3095
I00
sg3096
Vinteger
p3119
ssg3068
(dp3120
g3107
Vto_one
p3121
sg3088
I01
sg3089
VNo default provided.
p3122
sg3091
I00
sg3092
I01
sg3093
V__nodoc__
p3123
sg3095
I00
sg3096
Vrelated
p3124
ssg3072
(dp3125
g3107
Vto_one
p3126
sg3088
I00
sg3089
VNo default provided.
p3127
sg3091
I00
sg3092
I00
sg3093
V__nodoc__
p3128
sg3095
I00
sg3096
Vrelated
p3129
ssg3076
(dp3130
g3107
Vto_one
p3131
sg3088
I00
sg3089
VNo default provided.
p3132
sg3091
I00
sg3092
I00
sg3093
V__nodoc__
p3133
sg3095
I00
sg3096
Vrelated
p3134
ssg3080
(dp3135
g3088
I00
sg3089
VNo default provided.
p3136
sg3091
I00
sg3092
I00
sg3093
V__nodoc__
p3137
sg3095
I00
sg3096
Vinteger
p3138
sssg101
V/api/v1/spo2/
p3139
sVdefault_format
p3140
Vapplication/json
p3141
sVdefault_limit
p3142
I20
sVallowed_list_http_methods
p3143
(lp3144
Vget
p3145
assVcadence
p3146
(dp3147
Vfiltering
p3148
(dp3149
Vflat
p3150
(lp3151
Vexact
p3152
asVend
p3153
(lp3154
Vexact
p3155
asVstart
p3156
(lp3157
Vexact
p3158
asVdatatype
p3159
(lp3160
Vexact
p3161
aVin
p3162
asVtimestamp
p3163
(lp3164
Vrange
p3165
aVgt
p3166
aVgte
p3167
aVlt
p3168
aVlte
p3169
asVno_timestamps
p3170
(lp3171
Vexact
p3172
asVrecord
p3173
(lp3174
Vexact
p3175
aVin
p3176
asVrange
p3177
(lp3178
Vexact
p3179
aVin
p3180
asVuser
p3181
(lp3182
Vexact
p3183
aVin
p3184
asVmax_values
p3185
(lp3186
Vexact
p3187
assg44
g3146
sVallowed_detail_http_methods
p3188
(lp3189
sVfields
p3190
(dp3191
g3150
(dp3192
Vnullable
p3193
I00
sVdefault
p3194
VNo default provided.
p3195
sVreadonly
p3196
I00
sVblank
p3197
I00
sVhelp_text
p3198
V__nodoc__
p3199
sVunique
p3200
I00
sVtype
p3201
Vinteger
p3202
ssg3153
(dp3203
g3193
I00
sg3194
VNo default provided.
p3204
sg3196
I00
sg3197
I00
sg3198
V__nodoc__
p3205
sg3200
I00
sg3201
Vinteger
p3206
ssg3156
(dp3207
g3193
I00
sg3194
VNo default provided.
p3208
sg3196
I00
sg3197
I00
sg3198
V__nodoc__
p3209
sg3200
I00
sg3201
Vinteger
p3210
ssg3159
(dp3211
Vrelated_type
p3212
Vto_one
p3213
sg3193
I00
sg3194
VNo default provided.
p3214
sg3196
I00
sg3197
I01
sg3198
V__nodoc__
p3215
sg3200
I00
sg3201
Vrelated
p3216
ssg3163
(dp3217
g3193
I00
sg3194
VNo default provided.
p3218
sg3196
I00
sg3197
I00
sg3198
V__nodoc__
p3219
sg3200
I00
sg3201
Vinteger
p3220
ssg3170
(dp3221
g3193
I00
sg3194
VNo default provided.
p3222
sg3196
I00
sg3197
I00
sg3198
V__nodoc__
p3223
sg3200
I00
sg3201
Vinteger
p3224
ssg3173
(dp3225
g3212
Vto_one
p3226
sg3193
I01
sg3194
VNo default provided.
p3227
sg3196
I00
sg3197
I01
sg3198
V__nodoc__
p3228
sg3200
I00
sg3201
Vrelated
p3229
ssg3177
(dp3230
g3212
Vto_one
p3231
sg3193
I00
sg3194
VNo default provided.
p3232
sg3196
I00
sg3197
I00
sg3198
V__nodoc__
p3233
sg3200
I00
sg3201
Vrelated
p3234
ssg3181
(dp3235
g3212
Vto_one
p3236
sg3193
I00
sg3194
VNo default provided.
p3237
sg3196
I00
sg3197
I00
sg3198
V__nodoc__
p3238
sg3200
I00
sg3201
Vrelated
p3239
ssg3185
(dp3240
g3193
I00
sg3194
VNo default provided.
p3241
sg3196
I00
sg3197
I00
sg3198
V__nodoc__
p3242
sg3200
I00
sg3201
Vinteger
p3243
sssg101
V/api/v1/cadence/
p3244
sVdefault_format
p3245
Vapplication/json
p3246
sVdefault_limit
p3247
I20
sVallowed_list_http_methods
p3248
(lp3249
Vget
p3250
assVgps
p3251
(dp3252
Vfiltering
p3253
(dp3254
Vflat
p3255
(lp3256
Vexact
p3257
asVend
p3258
(lp3259
Vexact
p3260
asVstart
p3261
(lp3262
Vexact
p3263
asVdatatype
p3264
(lp3265
Vexact
p3266
aVin
p3267
asVtimestamp
p3268
(lp3269
Vrange
p3270
aVgt
p3271
aVgte
p3272
aVlt
p3273
aVlte
p3274
asVno_timestamps
p3275
(lp3276
Vexact
p3277
asVrecord
p3278
(lp3279
Vexact
p3280
aVin
p3281
asVrange
p3282
(lp3283
Vexact
p3284
aVin
p3285
asVuser
p3286
(lp3287
Vexact
p3288
aVin
p3289
asVmax_values
p3290
(lp3291
Vexact
p3292
assg44
g3251
sVallowed_detail_http_methods
p3293
(lp3294
sVfields
p3295
(dp3296
g3255
(dp3297
Vnullable
p3298
I00
sVdefault
p3299
VNo default provided.
p3300
sVreadonly
p3301
I00
sVblank
p3302
I00
sVhelp_text
p3303
V__nodoc__
p3304
sVunique
p3305
I00
sVtype
p3306
Vinteger
p3307
ssg3258
(dp3308
g3298
I00
sg3299
VNo default provided.
p3309
sg3301
I00
sg3302
I00
sg3303
V__nodoc__
p3310
sg3305
I00
sg3306
Vinteger
p3311
ssg3261
(dp3312
g3298
I00
sg3299
VNo default provided.
p3313
sg3301
I00
sg3302
I00
sg3303
V__nodoc__
p3314
sg3305
I00
sg3306
Vinteger
p3315
ssg3264
(dp3316
Vrelated_type
p3317
Vto_one
p3318
sg3298
I00
sg3299
VNo default provided.
p3319
sg3301
I00
sg3302
I01
sg3303
V__nodoc__
p3320
sg3305
I00
sg3306
Vrelated
p3321
ssg3268
(dp3322
g3298
I00
sg3299
VNo default provided.
p3323
sg3301
I00
sg3302
I00
sg3303
V__nodoc__
p3324
sg3305
I00
sg3306
Vinteger
p3325
ssg3275
(dp3326
g3298
I00
sg3299
VNo default provided.
p3327
sg3301
I00
sg3302
I00
sg3303
V__nodoc__
p3328
sg3305
I00
sg3306
Vinteger
p3329
ssg3278
(dp3330
g3317
Vto_one
p3331
sg3298
I01
sg3299
VNo default provided.
p3332
sg3301
I00
sg3302
I01
sg3303
V__nodoc__
p3333
sg3305
I00
sg3306
Vrelated
p3334
ssg3282
(dp3335
g3317
Vto_one
p3336
sg3298
I00
sg3299
VNo default provided.
p3337
sg3301
I00
sg3302
I00
sg3303
V__nodoc__
p3338
sg3305
I00
sg3306
Vrelated
p3339
ssg3286
(dp3340
g3317
Vto_one
p3341
sg3298
I00
sg3299
VNo default provided.
p3342
sg3301
I00
sg3302
I00
sg3303
V__nodoc__
p3343
sg3305
I00
sg3306
Vrelated
p3344
ssg3290
(dp3345
g3298
I00
sg3299
VNo default provided.
p3346
sg3301
I00
sg3302
I00
sg3303
V__nodoc__
p3347
sg3305
I00
sg3306
Vinteger
p3348
sssg101
V/api/v1/gps/
p3349
sVdefault_format
p3350
Vapplication/json
p3351
sVdefault_limit
p3352
I20
sVallowed_list_http_methods
p3353
(lp3354
Vget
p3355
assVprofile
p3356
(dp3357
g44
g3356
sVallowed_detail_http_methods
p3358
(lp3359
Vget
p3360
aVput
p3361
aVpatch
p3362
asVfields
p3363
(dp3364
Vpreferences
p3365
(dp3366
Vnullable
p3367
I01
sVdefault
p3368
VNo default provided.
p3369
sVreadonly
p3370
I00
sVblank
p3371
I00
sVhelp_text
p3372
VFree-form object of user preferences
p3373
sVunique
p3374
I00
sVtype
p3375
Vstring
p3376
ssVweight
p3377
(dp3378
g3367
I01
sg3368
VNo default provided.
p3379
sg3370
I00
sg3371
I00
sg3372
VWeight in kg.
p3380
sg3374
I00
sg3375
Vfloat
p3381
ssVgender
p3382
(dp3383
g3367
I00
sg3368
V
sg3370
I00
sg3371
I01
sg3372
Vuser's gender
p3384
sg3374
I00
sg3375
Vstring
p3385
ssVheight
p3386
(dp3387
g3367
I01
sg3368
VNo default provided.
p3388
sg3370
I00
sg3371
I00
sg3372
VHeight in m.
p3389
sg3374
I00
sg3375
Vfloat
p3390
ssVdate_of_birth
p3391
(dp3392
g3367
I01
sg3368
VNo default provided.
p3393
sg3370
I00
sg3371
I00
sg3372
VDOB: Date Of Birth.
p3394
sg3374
I00
sg3375
Vdatetime
p3395
ssVunit_system
p3396
(dp3397
g3367
I00
sg3368
VNo default provided.
p3398
sg3370
I00
sg3371
I01
sg3372
VEither "metric" or "imperial".
p3399
sg3374
I00
sg3375
Vinteger
p3400
ssVid
p3401
(dp3402
g3367
I00
sg3368
VNo default provided.
p3403
sg3370
I01
sg3371
I00
sg3372
VThe primary key for this resource. Integer data. Ex: 2673
p3404
sg3374
I01
sg3375
Vinteger
p3405
ssVresource_uri
p3406
(dp3407
g3367
I00
sg3368
VNo default provided.
p3408
sg3370
I01
sg3371
I00
sg3372
VThe unique URI where the object resides.
p3409
sg3374
I00
sg3375
Vstring
p3410
sssg101
V/api/v1/profile/
p3411
sVdefault_format
p3412
Vapplication/json
p3413
sVdefault_limit
p3414
I20
sVallowed_list_http_methods
p3415
(lp3416
Vget
p3417
assVbreathingratestatus
p3418
(dp3419
Vfiltering
p3420
(dp3421
Vflat
p3422
(lp3423
Vexact
p3424
asVend
p3425
(lp3426
Vexact
p3427
asVstart
p3428
(lp3429
Vexact
p3430
asVdatatype
p3431
(lp3432
Vexact
p3433
aVin
p3434
asVtimestamp
p3435
(lp3436
Vrange
p3437
aVgt
p3438
aVgte
p3439
aVlt
p3440
aVlte
p3441
asVno_timestamps
p3442
(lp3443
Vexact
p3444
asVrecord
p3445
(lp3446
Vexact
p3447
aVin
p3448
asVrange
p3449
(lp3450
Vexact
p3451
aVin
p3452
asVuser
p3453
(lp3454
Vexact
p3455
aVin
p3456
asVmax_values
p3457
(lp3458
Vexact
p3459
assg44
g3418
sVallowed_detail_http_methods
p3460
(lp3461
sVfields
p3462
(dp3463
g3422
(dp3464
Vnullable
p3465
I00
sVdefault
p3466
VNo default provided.
p3467
sVreadonly
p3468
I00
sVblank
p3469
I00
sVhelp_text
p3470
V__nodoc__
p3471
sVunique
p3472
I00
sVtype
p3473
Vinteger
p3474
ssg3425
(dp3475
g3465
I00
sg3466
VNo default provided.
p3476
sg3468
I00
sg3469
I00
sg3470
V__nodoc__
p3477
sg3472
I00
sg3473
Vinteger
p3478
ssg3428
(dp3479
g3465
I00
sg3466
VNo default provided.
p3480
sg3468
I00
sg3469
I00
sg3470
V__nodoc__
p3481
sg3472
I00
sg3473
Vinteger
p3482
ssg3431
(dp3483
Vrelated_type
p3484
Vto_one
p3485
sg3465
I00
sg3466
VNo default provided.
p3486
sg3468
I00
sg3469
I01
sg3470
V__nodoc__
p3487
sg3472
I00
sg3473
Vrelated
p3488
ssg3435
(dp3489
g3465
I00
sg3466
VNo default provided.
p3490
sg3468
I00
sg3469
I00
sg3470
V__nodoc__
p3491
sg3472
I00
sg3473
Vinteger
p3492
ssg3442
(dp3493
g3465
I00
sg3466
VNo default provided.
p3494
sg3468
I00
sg3469
I00
sg3470
V__nodoc__
p3495
sg3472
I00
sg3473
Vinteger
p3496
ssg3445
(dp3497
g3484
Vto_one
p3498
sg3465
I01
sg3466
VNo default provided.
p3499
sg3468
I00
sg3469
I01
sg3470
V__nodoc__
p3500
sg3472
I00
sg3473
Vrelated
p3501
ssg3449
(dp3502
g3484
Vto_one
p3503
sg3465
I00
sg3466
VNo default provided.
p3504
sg3468
I00
sg3469
I00
sg3470
V__nodoc__
p3505
sg3472
I00
sg3473
Vrelated
p3506
ssg3453
(dp3507
g3484
Vto_one
p3508
sg3465
I00
sg3466
VNo default provided.
p3509
sg3468
I00
sg3469
I00
sg3470
V__nodoc__
p3510
sg3472
I00
sg3473
Vrelated
p3511
ssg3457
(dp3512
g3465
I00
sg3466
VNo default provided.
p3513
sg3468
I00
sg3469
I00
sg3470
V__nodoc__
p3514
sg3472
I00
sg3473
Vinteger
p3515
sssg101
V/api/v1/breathingratestatus/
p3516
sVdefault_format
p3517
Vapplication/json
p3518
sVdefault_limit
p3519
I20
sVallowed_list_http_methods
p3520
(lp3521
Vget
p3522
assVrrinterval
p3523
(dp3524
Vfiltering
p3525
(dp3526
Vflat
p3527
(lp3528
Vexact
p3529
asVend
p3530
(lp3531
Vexact
p3532
asVstart
p3533
(lp3534
Vexact
p3535
asVdatatype
p3536
(lp3537
Vexact
p3538
aVin
p3539
asVtimestamp
p3540
(lp3541
Vrange
p3542
aVgt
p3543
aVgte
p3544
aVlt
p3545
aVlte
p3546
asVno_timestamps
p3547
(lp3548
Vexact
p3549
asVrecord
p3550
(lp3551
Vexact
p3552
aVin
p3553
asVrange
p3554
(lp3555
Vexact
p3556
aVin
p3557
asVuser
p3558
(lp3559
Vexact
p3560
aVin
p3561
asVmax_values
p3562
(lp3563
Vexact
p3564
assg44
g3523
sVallowed_detail_http_methods
p3565
(lp3566
sVfields
p3567
(dp3568
g3527
(dp3569
Vnullable
p3570
I00
sVdefault
p3571
VNo default provided.
p3572
sVreadonly
p3573
I00
sVblank
p3574
I00
sVhelp_text
p3575
V__nodoc__
p3576
sVunique
p3577
I00
sVtype
p3578
Vinteger
p3579
ssg3530
(dp3580
g3570
I00
sg3571
VNo default provided.
p3581
sg3573
I00
sg3574
I00
sg3575
V__nodoc__
p3582
sg3577
I00
sg3578
Vinteger
p3583
ssg3533
(dp3584
g3570
I00
sg3571
VNo default provided.
p3585
sg3573
I00
sg3574
I00
sg3575
V__nodoc__
p3586
sg3577
I00
sg3578
Vinteger
p3587
ssg3536
(dp3588
Vrelated_type
p3589
Vto_one
p3590
sg3570
I00
sg3571
VNo default provided.
p3591
sg3573
I00
sg3574
I01
sg3575
V__nodoc__
p3592
sg3577
I00
sg3578
Vrelated
p3593
ssg3540
(dp3594
g3570
I00
sg3571
VNo default provided.
p3595
sg3573
I00
sg3574
I00
sg3575
V__nodoc__
p3596
sg3577
I00
sg3578
Vinteger
p3597
ssg3547
(dp3598
g3570
I00
sg3571
VNo default provided.
p3599
sg3573
I00
sg3574
I00
sg3575
V__nodoc__
p3600
sg3577
I00
sg3578
Vinteger
p3601
ssg3550
(dp3602
g3589
Vto_one
p3603
sg3570
I01
sg3571
VNo default provided.
p3604
sg3573
I00
sg3574
I01
sg3575
V__nodoc__
p3605
sg3577
I00
sg3578
Vrelated
p3606
ssg3554
(dp3607
g3589
Vto_one
p3608
sg3570
I00
sg3571
VNo default provided.
p3609
sg3573
I00
sg3574
I00
sg3575
V__nodoc__
p3610
sg3577
I00
sg3578
Vrelated
p3611
ssg3558
(dp3612
g3589
Vto_one
p3613
sg3570
I00
sg3571
VNo default provided.
p3614
sg3573
I00
sg3574
I00
sg3575
V__nodoc__
p3615
sg3577
I00
sg3578
Vrelated
p3616
ssg3562
(dp3617
g3570
I00
sg3571
VNo default provided.
p3618
sg3573
I00
sg3574
I00
sg3575
V__nodoc__
p3619
sg3577
I00
sg3578
Vinteger
p3620
sssg101
V/api/v1/rrinterval/
p3621
sVdefault_format
p3622
Vapplication/json
p3623
sVdefault_limit
p3624
I20
sVallowed_list_http_methods
p3625
(lp3626
Vget
p3627
assVshare
p3628
(dp3629
g44
g3628
sVallowed_detail_http_methods
p3630
(lp3631
Vget
p3632
asVfields
p3633
(dp3634
Vshared_uri
p3635
(dp3636
Vnullable
p3637
I00
sVdefault
p3638
VNo default provided.
p3639
sVreadonly
p3640
I01
sVblank
p3641
I00
sVhelp_text
p3642
VUnicode string data. Ex: "Hello World"
p3643
sVunique
p3644
I00
sVtype
p3645
Vstring
p3646
ssVcreated
p3647
(dp3648
g3637
I00
sg3638
I01
sg3640
I00
sg3641
I01
sg3642
VA date & time as a string. Ex: "2010-11-10T03:07:43"
p3649
sg3644
I00
sg3645
Vdatetime
p3650
ssVsharetype
p3651
(dp3652
Vrelated_type
p3653
Vto_one
p3654
sg3637
I00
sg3638
VNo default provided.
p3655
sg3640
I00
sg3641
I00
sg3642
VA reference to [:r:sharetype].  Maybe specified by URI or ID.  Using a URI is recommended.
p3656
sg3644
I00
sg3645
Vrelated
p3657
ssVobject_id
p3658
(dp3659
g3637
I00
sg3638
VNo default provided.
p3660
sg3640
I00
sg3641
I00
sg3642
VInteger data. Ex: 2673
p3661
sg3644
I00
sg3645
Vinteger
p3662
ssVtoken
p3663
(dp3664
g3637
I00
sg3638
V
sg3640
I00
sg3641
I01
sg3642
VUnicode string data. Ex: "Hello World"
p3665
sg3644
I01
sg3645
Vstring
p3666
ssVid
p3667
(dp3668
g3637
I00
sg3638
VNo default provided.
p3669
sg3640
I01
sg3641
I00
sg3642
VThe primary key for this resource. Integer data. Ex: 2673
p3670
sg3644
I00
sg3645
Vinteger
p3671
ssVresource_uri
p3672
(dp3673
g3637
I00
sg3638
VNo default provided.
p3674
sg3640
I01
sg3641
I00
sg3642
VThe unique URI where the object resides.
p3675
sg3644
I00
sg3645
Vstring
p3676
sssg101
V/api/v1/share/
p3677
sVdefault_format
p3678
Vapplication/json
p3679
sVdefault_limit
p3680
I20
sVallowed_list_http_methods
p3681
(lp3682
Vget
p3683
aVpost
p3684
assVcreateuser
p3685
(dp3686
g44
g3685
sVallowed_detail_http_methods
p3687
(lp3688
sVfields
p3689
(dp3690
Vprofile
p3691
(dp3692
Vrelated_type
p3693
Vto_one
p3694
sVnullable
p3695
I01
sVdefault
p3696
VNo default provided.
p3697
sVreadonly
p3698
I01
sVblank
p3699
I01
sVhelp_text
p3700
VA reference to [:r:profile].  Maybe specified by URI or ID.  Using a URI is recommended.
p3701
sVunique
p3702
I00
sVtype
p3703
Vrelated
p3704
ssVusername
p3705
(dp3706
g3695
I00
sg3696
VNo default provided.
p3707
sg3698
I01
sg3699
I01
sg3700
VSet to be the same as email.  Left in place for historical reasons.
p3708
sg3702
I00
sg3703
Vstring
p3709
ssVfirst_name
p3710
(dp3711
g3695
I00
sg3696
V
sg3698
I00
sg3699
I01
sg3700
VUnicode string data. Ex: "Hello World"
p3712
sg3702
I00
sg3703
Vstring
p3713
ssVlast_name
p3714
(dp3715
g3695
I00
sg3696
V
sg3698
I00
sg3699
I01
sg3700
VUnicode string data. Ex: "Hello World"
p3716
sg3702
I00
sg3703
Vstring
p3717
ssVid
p3718
(dp3719
g3695
I00
sg3696
VNo default provided.
p3720
sg3698
I01
sg3699
I00
sg3700
VThe primary key for this resource. The primary key for this resource. Integer data. Ex: 2673
p3721
sg3702
I01
sg3703
Vinteger
p3722
ssVpassword
p3723
(dp3724
g3695
I01
sg3696
VNo default provided.
p3725
sg3698
I00
sg3699
I01
sg3700
VUnicode string data. Ex: "Hello World"
p3726
sg3702
I00
sg3703
Vstring
p3727
ssVemail
p3728
(dp3729
g3695
I00
sg3696
VNo default provided.
p3730
sg3698
I00
sg3699
I00
sg3700
VUnicode string data. Ex: "Hello World"
p3731
sg3702
I00
sg3703
Vstring
p3732
ssVresource_uri
p3733
(dp3734
g3695
I00
sg3696
VNo default provided.
p3735
sg3698
I01
sg3699
I00
sg3700
VThe unique URI where the object resides.
p3736
sg3702
I00
sg3703
Vstring
p3737
sssg101
V/api/v1/createuser/
p3738
sVdefault_format
p3739
Vapplication/json
p3740
sVdefault_limit
p3741
I20
sVallowed_list_http_methods
p3742
(lp3743
Vpost
p3744
assVaccount
p3745
(dp3746
Vfiltering
p3747
(dp3748
Vemail
p3749
(lp3750
Vexact
p3751
asVid
p3752
(lp3753
Vexact
p3754
aVin
p3755
assg44
g3745
sVallowed_detail_http_methods
p3756
(lp3757
sVfields
p3758
(dp3759
Vprofile
p3760
(dp3761
Vrelated_type
p3762
Vto_one
p3763
sVnullable
p3764
I01
sVdefault
p3765
VNo default provided.
p3766
sVreadonly
p3767
I01
sVblank
p3768
I01
sVhelp_text
p3769
VA reference to [:r:profile].  Maybe specified by URI or ID.  Using a URI is recommended.
p3770
sVunique
p3771
I00
sVtype
p3772
Vrelated
p3773
ssVusername
p3774
(dp3775
g3764
I00
sg3765
VNo default provided.
p3776
sg3767
I01
sg3768
I01
sg3769
VSet to be the same as email.  Left in place for historical reasons.
p3777
sg3771
I01
sg3772
Vstring
p3778
ssVfirst_name
p3779
(dp3780
g3764
I00
sg3765
V
sg3767
I00
sg3768
I01
sg3769
VUnicode string data. Ex: "Hello World"
p3781
sg3771
I00
sg3772
Vstring
p3782
ssVlast_name
p3783
(dp3784
g3764
I00
sg3765
V
sg3767
I00
sg3768
I01
sg3769
VUnicode string data. Ex: "Hello World"
p3785
sg3771
I00
sg3772
Vstring
p3786
ssg3752
(dp3787
g3764
I00
sg3765
VNo default provided.
p3788
sg3767
I01
sg3768
I00
sg3769
VThe primary key for this resource. The primary key for this resource. Integer data. Ex: 2673
p3789
sg3771
I01
sg3772
Vinteger
p3790
ssVis_staff
p3791
(dp3792
g3764
I00
sg3765
VNo default provided.
p3793
sg3767
I00
sg3768
I00
sg3769
VDesignates whether the user can log into this admin site.
p3794
sg3771
I00
sg3772
Vboolean
p3795
ssg3749
(dp3796
g3764
I00
sg3765
VNo default provided.
p3797
sg3767
I01
sg3768
I01
sg3769
VCannot change without an email confirmation loop
p3798
sg3771
I01
sg3772
Vstring
p3799
ssVresource_uri
p3800
(dp3801
g3764
I00
sg3765
VNo default provided.
p3802
sg3767
I01
sg3768
I00
sg3769
VThe unique URI where the object resides.
p3803
sg3771
I00
sg3772
Vstring
p3804
sssg101
V/api/v1/account/
p3805
sVdefault_format
p3806
Vapplication/json
p3807
sVdefault_limit
p3808
I20
sVallowed_list_http_methods
p3809
(lp3810
Vget
p3811
assVbundle
p3812
(dp3813
g44
g3812
sVallowed_detail_http_methods
p3814
(lp3815
Vget
p3816
asVfields
p3817
(dp3818
Vresource_uri
p3819
(dp3820
Vnullable
p3821
I00
sVdefault
p3822
VNo default provided.
p3823
sVreadonly
p3824
I01
sVblank
p3825
I00
sVhelp_text
p3826
VThe unique URI where the object resides.
p3827
sVunique
p3828
I00
sVtype
p3829
Vstring
p3830
ssVid
p3831
(dp3832
g3821
I00
sg3822
V
sg3824
I00
sg3825
I01
sg3826
VThe primary key for this resource. Integer data. Ex: 2673
p3833
sg3828
I01
sg3829
Vinteger
p3834
ssVname
p3835
(dp3836
g3821
I00
sg3822
VNo default provided.
p3837
sg3824
I00
sg3825
I00
sg3826
VUnicode string data. Ex: "Hello World"
p3838
sg3828
I01
sg3829
Vstring
p3839
sssg101
V/api/v1/bundle/
p3840
sVdefault_format
p3841
Vapplication/json
p3842
sVdefault_limit
p3843
I20
sVallowed_list_http_methods
p3844
(lp3845
Vget
p3846
assVactivityattributevalue
p3847
(dp3848
g44
g3847
sVallowed_detail_http_methods
p3849
(lp3850
VGET
p3851
asVfields
p3852
(dp3853
Vnote
p3854
(dp3855
Vnullable
p3856
I00
sVdefault
p3857
VNo default provided.
p3858
sVreadonly
p3859
I00
sVblank
p3860
I01
sVhelp_text
p3861
VUnicode string data. Ex: "Hello World"
p3862
sVunique
p3863
I00
sVtype
p3864
Vstring
p3865
ssVstart
p3866
(dp3867
g3856
I00
sg3857
VNo default provided.
p3868
sg3859
I00
sg3860
I01
sg3861
V An integer indicating the number of 256ths of a second that have passed since Jan 1, 1970 UTC, ie. a traditional timestamp, multiplied by 256.
p3869
sg3863
I00
sg3864
Vinteger
p3870
ssVvalue
p3871
(dp3872
g3856
I00
sg3857
VNo default provided.
p3873
sg3859
I00
sg3860
I00
sg3861
VFloating point numeric data. Ex: 26.73
p3874
sg3863
I00
sg3864
Vfloat
p3875
sssg101
V/api/v1/activityattributevalue/
p3876
sVdefault_format
p3877
Vapplication/json
p3878
sVdefault_limit
p3879
I20
sVallowed_list_http_methods
p3880
(lp3881
VGET
p3882
assVuser
p3883
(dp3884
Vfiltering
p3885
(dp3886
Vemail
p3887
(lp3888
Vexact
p3889
asVid
p3890
(lp3891
Vexact
p3892
aVin
p3893
assg44
g3883
sVallowed_detail_http_methods
p3894
(lp3895
Vget
p3896
aVput
p3897
aVpatch
p3898
asVfields
p3899
(dp3900
Vprofile
p3901
(dp3902
Vrelated_type
p3903
Vto_one
p3904
sVnullable
p3905
I01
sVdefault
p3906
VNo default provided.
p3907
sVreadonly
p3908
I01
sVblank
p3909
I01
sVhelp_text
p3910
VA reference to [:r:profile].  Maybe specified by URI or ID.  Using a URI is recommended.
p3911
sVunique
p3912
I00
sVtype
p3913
Vrelated
p3914
ssVusername
p3915
(dp3916
g3905
I00
sg3906
VNo default provided.
p3917
sg3908
I01
sg3909
I01
sg3910
VSet to be the same as email.  Left in place for historical reasons.
p3918
sg3912
I01
sg3913
Vstring
p3919
ssVfirst_name
p3920
(dp3921
g3905
I00
sg3906
V
sg3908
I00
sg3909
I01
sg3910
VUnicode string data. Ex: "Hello World"
p3922
sg3912
I00
sg3913
Vstring
p3923
ssVlast_name
p3924
(dp3925
g3905
I00
sg3906
V
sg3908
I00
sg3909
I01
sg3910
VUnicode string data. Ex: "Hello World"
p3926
sg3912
I00
sg3913
Vstring
p3927
ssg3890
(dp3928
g3905
I00
sg3906
VNo default provided.
p3929
sg3908
I01
sg3909
I00
sg3910
VThe primary key for this resource. Integer data. Ex: 2673
p3930
sg3912
I01
sg3913
Vinteger
p3931
ssg3887
(dp3932
g3905
I00
sg3906
VNo default provided.
p3933
sg3908
I01
sg3909
I01
sg3910
VCannot change without an email confirmation loop
p3934
sg3912
I01
sg3913
Vstring
p3935
ssVresource_uri
p3936
(dp3937
g3905
I00
sg3906
VNo default provided.
p3938
sg3908
I01
sg3909
I00
sg3910
VThe unique URI where the object resides.
p3939
sg3912
I00
sg3913
Vstring
p3940
sssg101
V/api/v1/user/
p3941
sVdefault_format
p3942
Vapplication/json
p3943
sVdefault_limit
p3944
I20
sVallowed_list_http_methods
p3945
(lp3946
Vget
p3947
assVasync
p3948
(dp3949
Vfiltering
p3950
(dp3951
Vdatatype
p3952
(lp3953
Vexact
p3954
aVin
p3955
asVstart
p3956
(lp3957
Vexact
p3958
aVgt
p3959
aVgte
p3960
aVlt
p3961
aVlte
p3962
aVrange
p3963
asVuser
p3964
(lp3965
Vexact
p3966
aVin
p3967
asVlast_update
p3968
(lp3969
Vexact
p3970
aVgt
p3971
aVgte
p3972
aVlt
p3973
aVlte
p3974
aVrange
p3975
assg44
g3948
sVallowed_detail_http_methods
p3976
(lp3977
Vget
p3978
asVfields
p3979
(dp3980
g3952
(dp3981
Vrelated_type
p3982
Vto_one
p3983
sVnullable
p3984
I00
sVdefault
p3985
VNo default provided.
p3986
sVreadonly
p3987
I00
sVblank
p3988
I00
sVhelp_text
p3989
VA reference to [:r:datatype].  Maybe specified by URI or ID.  Using a URI is recommended.
p3990
sVunique
p3991
I00
sVtype
p3992
Vrelated
p3993
ssg3968
(dp3994
g3984
I00
sg3985
I359463898729
sg3987
I00
sg3988
I00
sg3989
Vlast time update.
p3995
sg3991
I00
sg3992
Vinteger
p3996
ssg3956
(dp3997
g3984
I00
sg3985
VNo default provided.
p3998
sg3987
I00
sg3988
I00
sg3989
VStart timestamp.
p3999
sg3991
I00
sg3992
Vinteger
p4000
ssg3964
(dp4001
g3982
Vto_one
p4002
sg3984
I00
sg3985
VNo default provided.
p4003
sg3987
I00
sg3988
I00
sg3989
VA [:r:user].  Maybe specified by URI, email, or ID.  Using a URI is recommended.
p4004
sg3991
I00
sg3992
Vrelated
p4005
ssVdata
p4006
(dp4007
g3984
I00
sg3985
VNo default provided.
p4008
sg3987
I00
sg3988
I00
sg3989
VFloat value
p4009
sg3991
I00
sg3992
Vfloat
p4010
ssVid
p4011
(dp4012
g3984
I00
sg3985
V
sg3987
I00
sg3988
I01
sg3989
VThe primary key for this resource. Integer data. Ex: 2673
p4013
sg3991
I01
sg3992
Vinteger
p4014
ssVresource_uri
p4015
(dp4016
g3984
I00
sg3985
VNo default provided.
p4017
sg3987
I01
sg3988
I00
sg3989
VThe unique URI where the object resides.
p4018
sg3991
I00
sg3992
Vstring
p4019
sssg101
V/api/v1/async/
p4020
sVdefault_format
p4021
Vapplication/json
p4022
sVdefault_limit
p4023
I20
sVallowed_list_http_methods
p4024
(lp4025
Vget
p4026
assVreport
p4027
(dp4028
Vfiltering
p4029
(dp4030
Vrecord
p4031
(lp4032
Vexact
p4033
aVin
p4034
asVrange
p4035
(lp4036
Vexact
p4037
aVin
p4038
asVend
p4039
(lp4040
Vexact
p4041
asVtrainingsession
p4042
(lp4043
Vexact
p4044
aVin
p4045
asVstart
p4046
(lp4047
Vexact
p4048
assg44
g4027
sVallowed_detail_http_methods
p4049
(lp4050
Vget
p4051
aVput
p4052
aVpatch
p4053
aVdelete
p4054
asVfields
p4055
(dp4056
Vname
p4057
(dp4058
Vnullable
p4059
I00
sVdefault
p4060
VNo default provided.
p4061
sVreadonly
p4062
I00
sVblank
p4063
I00
sVhelp_text
p4064
VName of template
p4065
sVunique
p4066
I00
sVtype
p4067
Vstring
p4068
ssVtitle
p4069
(dp4070
g4059
I00
sg4060
V
sg4062
I00
sg4063
I01
sg4064
VUnicode string data. Ex: "Hello World"
p4071
sg4066
I00
sg4067
Vstring
p4072
ssVextra_options
p4073
(dp4074
g4059
I00
sg4060
V
sg4062
I00
sg4063
I01
sg4064
VThis is used only with the report "list" and "list_tables", enter a comma-separated list of template ids that you want to insert as sub_resource
p4075
sg4066
I00
sg4067
Vstring
p4076
ssVmetric
p4077
(dp4078
Vrelated_type
p4079
Vto_many
p4080
sg4059
I00
sg4060
VNo default provided.
p4081
sg4062
I00
sg4063
I00
sg4064
VMany related resources. Can be either a list of URIs or list of individually nested resource data.
p4082
sg4066
I00
sg4067
Vrelated
p4083
ssVnote
p4084
(dp4085
g4059
I00
sg4060
V
sg4062
I00
sg4063
I01
sg4064
VUnicode string data. Ex: "Hello World"
p4086
sg4066
I00
sg4067
Vstring
p4087
ssVuser
p4088
(dp4089
g4079
Vto_one
p4090
sg4059
I01
sg4060
VNo default provided.
p4091
sg4062
I00
sg4063
I00
sg4064
V__nodoc__
p4092
sg4066
I00
sg4067
Vrelated
p4093
ssVfilters
p4094
(dp4095
g4059
I01
sg4060
V
sg4062
I00
sg4063
I00
sg4064
VEnter a dictionnary of selected filtering option Example: {"sort":"activitytype"}. 
p4096
sg4066
I00
sg4067
Vstring
p4097
ssVreport_type
p4098
(dp4099
g4059
I00
sg4060
VNo default provided.
p4100
sg4062
I00
sg4063
I00
sg4064
VFunction used to process raw data
p4101
sg4066
I00
sg4067
Vstring
p4102
ssVid
p4103
(dp4104
g4059
I00
sg4060
V
sg4062
I00
sg4063
I01
sg4064
VThe primary key for this resource. Integer data. Ex: 2673
p4105
sg4066
I01
sg4067
Vinteger
p4106
ssVresource_uri
p4107
(dp4108
g4059
I00
sg4060
VNo default provided.
p4109
sg4062
I01
sg4063
I00
sg4064
VThe unique URI where the object resides.
p4110
sg4066
I00
sg4067
Vstring
p4111
sssg101
V/api/v1/report/
p4112
sVdefault_format
p4113
Vapplication/json
p4114
sVdefault_limit
p4115
I20
sVallowed_list_http_methods
p4116
(lp4117
Vget
p4118
aVput
p4119
aVpost
p4120
aVpatch
p4121
assVtrainingsession
p4122
(dp4123
Vfiltering
p4124
(dp4125
Vend
p4126
(lp4127
Vexact
p4128
aVrange
p4129
aVgt
p4130
aVgte
p4131
aVlt
p4132
aVlte
p4133
asVusers
p4134
(lp4135
Vexact
p4136
aVin
p4137
asVlabels
p4138
(lp4139
Vexact
p4140
aVin
p4141
asVteams
p4142
(lp4143
Vexact
p4144
aVin
p4145
asVtrainingroutine
p4146
(lp4147
Vexact
p4148
aVin
p4149
asVstart
p4150
(lp4151
Vexact
p4152
aVrange
p4153
aVgt
p4154
aVgte
p4155
aVlt
p4156
aVlte
p4157
asVrange
p4158
I2
sVuser
p4159
(lp4160
Vexact
p4161
aVin
p4162
asVid
p4163
(lp4164
Vexact
p4165
aVin
p4166
assg44
g4122
sVallowed_detail_http_methods
p4167
(lp4168
Vget
p4169
aVput
p4170
aVdelete
p4171
aVpatch
p4172
asVordering
p4173
(lp4174
Vstart
p4175
aVend
p4176
asVfields
p4177
(dp4178
Vstatus
p4179
(dp4180
Vnullable
p4181
I00
sVdefault
p4182
VNo default provided.
p4183
sVreadonly
p4184
I00
sVblank
p4185
I00
sVhelp_text
p4186
VThe status as derived from the Records available in this TrainingSession.  Only one change is possible with this attribute: from realtime to realtime_complete.
p4187
sVunique
p4188
I00
sVtype
p4189
Vstring
p4190
ssg4126
(dp4191
g4181
I00
sg4182
VNo default provided.
p4192
sg4184
I00
sg4185
I00
sg4186
VInteger data. Ex: 2673
p4193
sg4188
I00
sg4189
Vinteger
p4194
ssVname
p4195
(dp4196
g4181
I00
sg4182
V
sg4184
I00
sg4185
I01
sg4186
VUnicode string data. Ex: "Hello World"
p4197
sg4188
I00
sg4189
Vstring
p4198
ssVcreated
p4199
(dp4200
g4181
I01
sg4182
VNo default provided.
p4201
sg4184
I01
sg4185
I01
sg4186
VCreated automatically
p4202
sg4188
I00
sg4189
Vdatetime
p4203
ssg4138
(dp4204
Vrelated_type
p4205
Vto_many
p4206
sg4181
I01
sg4182
VNo default provided.
p4207
sg4184
I01
sg4185
I01
sg4186
VMany related resources. Can be either a list of URIs or list of individually nested resource data.
p4208
sg4188
I00
sg4189
Vrelated
p4209
ssg4146
(dp4210
g4205
Vto_one
p4211
sg4181
I01
sg4182
VNo default provided.
p4212
sg4184
I00
sg4185
I01
sg4186
VA reference to [:r:trainingroutine].  Maybe specified by URI or ID.  Using a URI is recommended.
p4213
sg4188
I00
sg4189
Vrelated
p4214
ssVstart_date
p4215
(dp4216
g4181
I00
sg4182
VNo default provided.
p4217
sg4184
I01
sg4185
I00
sg4186
VA date & time as a string. Ex: "2010-11-10T03:07:43"
p4218
sg4188
I00
sg4189
Vdatetime
p4219
ssVnote
p4220
(dp4221
g4181
I00
sg4182
V
sg4184
I00
sg4185
I01
sg4186
VUnicode string data. Ex: "Hello World"
p4222
sg4188
I00
sg4189
Vstring
p4223
ssg4150
(dp4224
g4181
I00
sg4182
VNo default provided.
p4225
sg4184
I00
sg4185
I00
sg4186
VInteger data. Ex: 2673
p4226
sg4188
I00
sg4189
Vinteger
p4227
ssg4158
(dp4228
g4205
Vto_one
p4229
sg4181
I00
sg4182
VNo default provided.
p4230
sg4184
I00
sg4185
I00
sg4186
V__nodoc__
p4231
sg4188
I00
sg4189
Vrelated
p4232
ssg4159
(dp4233
g4205
Vto_one
p4234
sg4181
I00
sg4182
VNo default provided.
p4235
sg4184
I00
sg4185
I00
sg4186
VA [:r:user].  Maybe specified by URI, email, or ID.  Using a URI is recommended.
p4236
sg4188
I00
sg4189
Vrelated
p4237
ssg4134
(dp4238
g4205
Vto_many
p4239
sg4181
I00
sg4182
VNo default provided.
p4240
sg4184
I00
sg4185
I00
sg4186
VMany related resources. Can be either a list of URIs or list of individually nested resource data.
p4241
sg4188
I00
sg4189
Vrelated
p4242
ssg4142
(dp4243
g4205
Vto_many
p4244
sg4181
I01
sg4182
VNo default provided.
p4245
sg4184
I00
sg4185
I00
sg4186
VMany related resources. Can be either a list of URIs or list of individually nested resource data.
p4246
sg4188
I00
sg4189
Vrelated
p4247
ssg4163
(dp4248
g4181
I00
sg4182
VNo default provided.
p4249
sg4184
I01
sg4185
I00
sg4186
VThe primary key for this resource. Integer data. Ex: 2673
p4250
sg4188
I01
sg4189
Vinteger
p4251
ssVresource_uri
p4252
(dp4253
g4181
I00
sg4182
VNo default provided.
p4254
sg4184
I01
sg4185
I00
sg4186
VThe unique URI where the object resides.
p4255
sg4188
I00
sg4189
Vstring
p4256
sssg101
V/api/v1/trainingsession/
p4257
sVdefault_format
p4258
Vapplication/json
p4259
sVdefault_limit
p4260
I20
sVallowed_list_http_methods
p4261
(lp4262
Vget
p4263
aVpost
p4264
aVpatch
p4265
assVdata
p4266
(dp4267
Vfiltering
p4268
(dp4269
Vflat
p4270
(lp4271
Vexact
p4272
asVend
p4273
(lp4274
Vexact
p4275
asVstart
p4276
(lp4277
Vexact
p4278
asVdatatype
p4279
(lp4280
Vexact
p4281
aVin
p4282
asVtimestamp
p4283
(lp4284
Vrange
p4285
aVgt
p4286
aVgte
p4287
aVlt
p4288
aVlte
p4289
asVno_timestamps
p4290
(lp4291
Vexact
p4292
asVrecord
p4293
(lp4294
Vexact
p4295
aVin
p4296
asVrange
p4297
(lp4298
Vexact
p4299
aVin
p4300
asVuser
p4301
(lp4302
Vexact
p4303
aVin
p4304
asVmax_values
p4305
(lp4306
Vexact
p4307
assg44
g4266
sVallowed_detail_http_methods
p4308
(lp4309
sVfields
p4310
(dp4311
g4270
(dp4312
Vnullable
p4313
I00
sVdefault
p4314
VNo default provided.
p4315
sVreadonly
p4316
I00
sVblank
p4317
I00
sVhelp_text
p4318
V__nodoc__
p4319
sVunique
p4320
I00
sVtype
p4321
Vinteger
p4322
ssg4273
(dp4323
g4313
I00
sg4314
VNo default provided.
p4324
sg4316
I00
sg4317
I00
sg4318
V__nodoc__
p4325
sg4320
I00
sg4321
Vinteger
p4326
ssg4276
(dp4327
g4313
I00
sg4314
VNo default provided.
p4328
sg4316
I00
sg4317
I00
sg4318
V__nodoc__
p4329
sg4320
I00
sg4321
Vinteger
p4330
ssg4279
(dp4331
Vrelated_type
p4332
Vto_one
p4333
sg4313
I00
sg4314
VNo default provided.
p4334
sg4316
I00
sg4317
I01
sg4318
V__nodoc__
p4335
sg4320
I00
sg4321
Vrelated
p4336
ssg4283
(dp4337
g4313
I00
sg4314
VNo default provided.
p4338
sg4316
I00
sg4317
I00
sg4318
V__nodoc__
p4339
sg4320
I00
sg4321
Vinteger
p4340
ssg4290
(dp4341
g4313
I00
sg4314
VNo default provided.
p4342
sg4316
I00
sg4317
I00
sg4318
V__nodoc__
p4343
sg4320
I00
sg4321
Vinteger
p4344
ssg4293
(dp4345
g4332
Vto_one
p4346
sg4313
I01
sg4314
VNo default provided.
p4347
sg4316
I00
sg4317
I01
sg4318
V__nodoc__
p4348
sg4320
I00
sg4321
Vrelated
p4349
ssg4297
(dp4350
g4332
Vto_one
p4351
sg4313
I00
sg4314
VNo default provided.
p4352
sg4316
I00
sg4317
I00
sg4318
V__nodoc__
p4353
sg4320
I00
sg4321
Vrelated
p4354
ssg4301
(dp4355
g4332
Vto_one
p4356
sg4313
I00
sg4314
VNo default provided.
p4357
sg4316
I00
sg4317
I00
sg4318
V__nodoc__
p4358
sg4320
I00
sg4321
Vrelated
p4359
ssg4305
(dp4360
g4313
I00
sg4314
VNo default provided.
p4361
sg4316
I00
sg4317
I00
sg4318
V__nodoc__
p4362
sg4320
I00
sg4321
Vinteger
p4363
sssg101
V/api/v1/data/
p4364
sVdefault_format
p4365
Vapplication/json
p4366
sVdefault_limit
p4367
I20
sVallowed_list_http_methods
p4368
(lp4369
Vget
p4370
assVannotation
p4371
(dp4372
g44
g4371
sVallowed_detail_http_methods
p4373
(lp4374
Vget
p4375
aVput
p4376
aVpatch
p4377
aVdelete
p4378
asVfields
p4379
(dp4380
Vstart
p4381
(dp4382
Vnullable
p4383
I00
sVdefault
p4384
VNo default provided.
p4385
sVreadonly
p4386
I00
sVblank
p4387
I00
sVhelp_text
p4388
VStart timestamp.
p4389
sVunique
p4390
I00
sVtype
p4391
Vinteger
p4392
ssVdatatype
p4393
(dp4394
Vrelated_type
p4395
Vto_one
p4396
sg4383
I00
sg4384
VNo default provided.
p4397
sg4386
I00
sg4387
I01
sg4388
VA reference to [:r:datatype].  Maybe specified by URI or ID.  Using a URI is recommended.
p4398
sg4390
I00
sg4391
Vrelated
p4399
ssVuser
p4400
(dp4401
g4395
Vto_one
p4402
sg4383
I00
sg4384
VNo default provided.
p4403
sg4386
I00
sg4387
I00
sg4388
VA [:r:user].  Maybe specified by URI, email, or ID.  Using a URI is recommended.
p4404
sg4390
I00
sg4391
Vrelated
p4405
ssVlast_update
p4406
(dp4407
g4383
I00
sg4384
I359463898876
sg4386
I00
sg4387
I00
sg4388
Vlast time update.
p4408
sg4390
I00
sg4391
Vinteger
p4409
ssVrecord
p4410
(dp4411
g4395
Vto_one
p4412
sg4383
I01
sg4384
VNo default provided.
p4413
sg4386
I00
sg4387
I01
sg4388
VA reference to [:r:record].  Maybe specified by URI or ID.  Using a URI is recommended.
p4414
sg4390
I00
sg4391
Vrelated
p4415
ssVstart_date
p4416
(dp4417
g4383
I00
sg4384
VNo default provided.
p4418
sg4386
I01
sg4387
I00
sg4388
VA date & time as a string. Ex: "2010-11-10T03:07:43"
p4419
sg4390
I00
sg4391
Vdatetime
p4420
ssVid
p4421
(dp4422
g4383
I00
sg4384
V
sg4386
I00
sg4387
I01
sg4388
VThe primary key for this resource. Integer data. Ex: 2673
p4423
sg4390
I01
sg4391
Vinteger
p4424
ssVannotation
p4425
(dp4426
g4383
I00
sg4384
V
sg4386
I00
sg4387
I00
sg4388
VUnicode string data. Ex: "Hello World"
p4427
sg4390
I00
sg4391
Vstring
p4428
ssVresource_uri
p4429
(dp4430
g4383
I00
sg4384
VNo default provided.
p4431
sg4386
I01
sg4387
I00
sg4388
VThe unique URI where the object resides.
p4432
sg4390
I00
sg4391
Vstring
p4433
sssg101
V/api/v1/annotation/
p4434
sVdefault_format
p4435
Vapplication/json
p4436
sVdefault_limit
p4437
I20
sVallowed_list_http_methods
p4438
(lp4439
Vget
p4440
aVpost
p4441
aVpatch
p4442
assVresetpassword
p4443
(dp4444
g44
g4443
sVallowed_detail_http_methods
p4445
(lp4446
Vget
p4447
aVput
p4448
asVfields
p4449
(dp4450
Vpassword
p4451
(dp4452
Vnullable
p4453
I00
sVdefault
p4454
VNo default provided.
p4455
sVreadonly
p4456
I00
sVblank
p4457
I00
sVhelp_text
p4458
VUnicode string data. Ex: "Hello World"
p4459
sVunique
p4460
I00
sVtype
p4461
Vstring
p4462
ssVemail
p4463
(dp4464
g4453
I00
sg4454
VNo default provided.
p4465
sg4456
I00
sg4457
I00
sg4458
VUnicode string data. Ex: "Hello World"
p4466
sg4460
I00
sg4461
Vstring
p4467
sssg101
V/api/v1/resetpassword/
p4468
sVdefault_format
p4469
Vapplication/json
p4470
sVdefault_limit
p4471
I20
sVallowed_list_http_methods
p4472
(lp4473
Vpost
p4474
assVacc
p4475
(dp4476
Vfiltering
p4477
(dp4478
Vflat
p4479
(lp4480
Vexact
p4481
asVend
p4482
(lp4483
Vexact
p4484
asVstart
p4485
(lp4486
Vexact
p4487
asVdatatype
p4488
(lp4489
Vexact
p4490
aVin
p4491
asVtimestamp
p4492
(lp4493
Vrange
p4494
aVgt
p4495
aVgte
p4496
aVlt
p4497
aVlte
p4498
asVno_timestamps
p4499
(lp4500
Vexact
p4501
asVrecord
p4502
(lp4503
Vexact
p4504
aVin
p4505
asVrange
p4506
(lp4507
Vexact
p4508
aVin
p4509
asVuser
p4510
(lp4511
Vexact
p4512
aVin
p4513
asVmax_values
p4514
(lp4515
Vexact
p4516
assg44
g4475
sVallowed_detail_http_methods
p4517
(lp4518
sVfields
p4519
(dp4520
g4479
(dp4521
Vnullable
p4522
I00
sVdefault
p4523
VNo default provided.
p4524
sVreadonly
p4525
I00
sVblank
p4526
I00
sVhelp_text
p4527
V__nodoc__
p4528
sVunique
p4529
I00
sVtype
p4530
Vinteger
p4531
ssg4482
(dp4532
g4522
I00
sg4523
VNo default provided.
p4533
sg4525
I00
sg4526
I00
sg4527
V__nodoc__
p4534
sg4529
I00
sg4530
Vinteger
p4535
ssg4485
(dp4536
g4522
I00
sg4523
VNo default provided.
p4537
sg4525
I00
sg4526
I00
sg4527
V__nodoc__
p4538
sg4529
I00
sg4530
Vinteger
p4539
ssg4488
(dp4540
Vrelated_type
p4541
Vto_one
p4542
sg4522
I00
sg4523
VNo default provided.
p4543
sg4525
I00
sg4526
I01
sg4527
V__nodoc__
p4544
sg4529
I00
sg4530
Vrelated
p4545
ssg4492
(dp4546
g4522
I00
sg4523
VNo default provided.
p4547
sg4525
I00
sg4526
I00
sg4527
V__nodoc__
p4548
sg4529
I00
sg4530
Vinteger
p4549
ssg4499
(dp4550
g4522
I00
sg4523
VNo default provided.
p4551
sg4525
I00
sg4526
I00
sg4527
V__nodoc__
p4552
sg4529
I00
sg4530
Vinteger
p4553
ssg4502
(dp4554
g4541
Vto_one
p4555
sg4522
I01
sg4523
VNo default provided.
p4556
sg4525
I00
sg4526
I01
sg4527
V__nodoc__
p4557
sg4529
I00
sg4530
Vrelated
p4558
ssg4506
(dp4559
g4541
Vto_one
p4560
sg4522
I00
sg4523
VNo default provided.
p4561
sg4525
I00
sg4526
I00
sg4527
V__nodoc__
p4562
sg4529
I00
sg4530
Vrelated
p4563
ssg4510
(dp4564
g4541
Vto_one
p4565
sg4522
I00
sg4523
VNo default provided.
p4566
sg4525
I00
sg4526
I00
sg4527
V__nodoc__
p4567
sg4529
I00
sg4530
Vrelated
p4568
ssg4514
(dp4569
g4522
I00
sg4523
VNo default provided.
p4570
sg4525
I00
sg4526
I00
sg4527
V__nodoc__
p4571
sg4529
I00
sg4530
Vinteger
p4572
sssg101
V/api/v1/acc/
p4573
sVdefault_format
p4574
Vapplication/json
p4575
sVdefault_limit
p4576
I20
sVallowed_list_http_methods
p4577
(lp4578
Vget
p4579
assVbundle_permission_request
p4580
(dp4581
g44
g4580
sVallowed_detail_http_methods
p4582
(lp4583
Vget
p4584
aVput
p4585
asVfields
p4586
(dp4587
Vuser_allowed
p4588
(dp4589
Vrelated_type
p4590
Vto_one
p4591
sVnullable
p4592
I00
sVdefault
p4593
VNo default provided.
p4594
sVreadonly
p4595
I00
sVblank
p4596
I00
sVhelp_text
p4597
VA [:r:user].  Maybe specified by URI, email, or ID.  Using a URI is recommended.
p4598
sVunique
p4599
I00
sVtype
p4600
Vrelated
p4601
ssVuser_target
p4602
(dp4603
g4590
Vto_one
p4604
sg4592
I00
sg4593
VNo default provided.
p4605
sg4595
I00
sg4596
I00
sg4597
VThe primary key for this resource. A [:r:user].  Maybe specified by URI, email, or ID.  Using a URI is recommended.
p4606
sg4599
I00
sg4600
Vrelated
p4607
ssVbundle
p4608
(dp4609
g4590
Vto_one
p4610
sg4592
I00
sg4593
VNo default provided.
p4611
sg4595
I00
sg4596
I00
sg4597
VA reference to [:r:bundle].  Maybe specified by URI or ID.  Using a URI is recommended.
p4612
sg4599
I00
sg4600
Vrelated
p4613
ssVresource_uri
p4614
(dp4615
g4592
I00
sg4593
VNo default provided.
p4616
sg4595
I01
sg4596
I00
sg4597
VThe unique URI where the object resides.
p4617
sg4599
I00
sg4600
Vstring
p4618
sssg101
V/api/v1/bundle_permission_request/
p4619
sVdefault_format
p4620
Vapplication/json
p4621
sVdefault_limit
p4622
I20
sVallowed_list_http_methods
p4623
(lp4624
Vpost
p4625
assVdatafile
p4626
(dp4627
Vfiltering
p4628
(dp4629
Vflat
p4630
(lp4631
Vexact
p4632
asVend
p4633
(lp4634
Vexact
p4635
asVstart
p4636
(lp4637
Vexact
p4638
asVdatatype
p4639
(lp4640
Vexact
p4641
aVin
p4642
asVtimestamp
p4643
(lp4644
Vrange
p4645
aVgt
p4646
aVgte
p4647
aVlt
p4648
aVlte
p4649
asVno_timestamps
p4650
(lp4651
Vexact
p4652
asVrecord
p4653
(lp4654
Vexact
p4655
aVin
p4656
asVrange
p4657
(lp4658
Vexact
p4659
aVin
p4660
asVuser
p4661
(lp4662
Vexact
p4663
aVin
p4664
asVmax_values
p4665
(lp4666
Vexact
p4667
assg44
g4626
sVallowed_detail_http_methods
p4668
(lp4669
sVfields
p4670
(dp4671
g4630
(dp4672
Vnullable
p4673
I00
sVdefault
p4674
VNo default provided.
p4675
sVreadonly
p4676
I00
sVblank
p4677
I00
sVhelp_text
p4678
V__nodoc__
p4679
sVunique
p4680
I00
sVtype
p4681
Vinteger
p4682
ssg4633
(dp4683
g4673
I00
sg4674
VNo default provided.
p4684
sg4676
I00
sg4677
I00
sg4678
V__nodoc__
p4685
sg4680
I00
sg4681
Vinteger
p4686
ssg4636
(dp4687
g4673
I00
sg4674
VNo default provided.
p4688
sg4676
I00
sg4677
I00
sg4678
V__nodoc__
p4689
sg4680
I00
sg4681
Vinteger
p4690
ssg4639
(dp4691
Vrelated_type
p4692
Vto_one
p4693
sg4673
I00
sg4674
VNo default provided.
p4694
sg4676
I00
sg4677
I01
sg4678
V__nodoc__
p4695
sg4680
I00
sg4681
Vrelated
p4696
ssg4643
(dp4697
g4673
I00
sg4674
VNo default provided.
p4698
sg4676
I00
sg4677
I00
sg4678
V__nodoc__
p4699
sg4680
I00
sg4681
Vinteger
p4700
ssg4650
(dp4701
g4673
I00
sg4674
VNo default provided.
p4702
sg4676
I00
sg4677
I00
sg4678
V__nodoc__
p4703
sg4680
I00
sg4681
Vinteger
p4704
ssg4653
(dp4705
g4692
Vto_one
p4706
sg4673
I01
sg4674
VNo default provided.
p4707
sg4676
I00
sg4677
I01
sg4678
V__nodoc__
p4708
sg4680
I00
sg4681
Vrelated
p4709
ssg4657
(dp4710
g4692
Vto_one
p4711
sg4673
I00
sg4674
VNo default provided.
p4712
sg4676
I00
sg4677
I00
sg4678
V__nodoc__
p4713
sg4680
I00
sg4681
Vrelated
p4714
ssg4661
(dp4715
g4692
Vto_one
p4716
sg4673
I00
sg4674
VNo default provided.
p4717
sg4676
I00
sg4677
I00
sg4678
V__nodoc__
p4718
sg4680
I00
sg4681
Vrelated
p4719
ssg4665
(dp4720
g4673
I00
sg4674
VNo default provided.
p4721
sg4676
I00
sg4677
I00
sg4678
V__nodoc__
p4722
sg4680
I00
sg4681
Vinteger
p4723
sssg101
V/api/v1/datafile/
p4724
sVdefault_format
p4725
Vapplication/json
p4726
sVdefault_limit
p4727
I20
sVallowed_list_http_methods
p4728
(lp4729
Vget
p4730
assVrespiration
p4731
(dp4732
Vfiltering
p4733
(dp4734
Vflat
p4735
(lp4736
Vexact
p4737
asVend
p4738
(lp4739
Vexact
p4740
asVstart
p4741
(lp4742
Vexact
p4743
asVdatatype
p4744
(lp4745
Vexact
p4746
aVin
p4747
asVtimestamp
p4748
(lp4749
Vrange
p4750
aVgt
p4751
aVgte
p4752
aVlt
p4753
aVlte
p4754
asVno_timestamps
p4755
(lp4756
Vexact
p4757
asVrecord
p4758
(lp4759
Vexact
p4760
aVin
p4761
asVrange
p4762
(lp4763
Vexact
p4764
aVin
p4765
asVuser
p4766
(lp4767
Vexact
p4768
aVin
p4769
asVmax_values
p4770
(lp4771
Vexact
p4772
assg44
g4731
sVallowed_detail_http_methods
p4773
(lp4774
sVfields
p4775
(dp4776
g4735
(dp4777
Vnullable
p4778
I00
sVdefault
p4779
VNo default provided.
p4780
sVreadonly
p4781
I00
sVblank
p4782
I00
sVhelp_text
p4783
V__nodoc__
p4784
sVunique
p4785
I00
sVtype
p4786
Vinteger
p4787
ssg4738
(dp4788
g4778
I00
sg4779
VNo default provided.
p4789
sg4781
I00
sg4782
I00
sg4783
V__nodoc__
p4790
sg4785
I00
sg4786
Vinteger
p4791
ssg4741
(dp4792
g4778
I00
sg4779
VNo default provided.
p4793
sg4781
I00
sg4782
I00
sg4783
V__nodoc__
p4794
sg4785
I00
sg4786
Vinteger
p4795
ssg4744
(dp4796
Vrelated_type
p4797
Vto_one
p4798
sg4778
I00
sg4779
VNo default provided.
p4799
sg4781
I00
sg4782
I01
sg4783
V__nodoc__
p4800
sg4785
I00
sg4786
Vrelated
p4801
ssg4748
(dp4802
g4778
I00
sg4779
VNo default provided.
p4803
sg4781
I00
sg4782
I00
sg4783
V__nodoc__
p4804
sg4785
I00
sg4786
Vinteger
p4805
ssg4755
(dp4806
g4778
I00
sg4779
VNo default provided.
p4807
sg4781
I00
sg4782
I00
sg4783
V__nodoc__
p4808
sg4785
I00
sg4786
Vinteger
p4809
ssg4758
(dp4810
g4797
Vto_one
p4811
sg4778
I01
sg4779
VNo default provided.
p4812
sg4781
I00
sg4782
I01
sg4783
V__nodoc__
p4813
sg4785
I00
sg4786
Vrelated
p4814
ssg4762
(dp4815
g4797
Vto_one
p4816
sg4778
I00
sg4779
VNo default provided.
p4817
sg4781
I00
sg4782
I00
sg4783
V__nodoc__
p4818
sg4785
I00
sg4786
Vrelated
p4819
ssg4766
(dp4820
g4797
Vto_one
p4821
sg4778
I00
sg4779
VNo default provided.
p4822
sg4781
I00
sg4782
I00
sg4783
V__nodoc__
p4823
sg4785
I00
sg4786
Vrelated
p4824
ssg4770
(dp4825
g4778
I00
sg4779
VNo default provided.
p4826
sg4781
I00
sg4782
I00
sg4783
V__nodoc__
p4827
sg4785
I00
sg4786
Vinteger
p4828
sssg101
V/api/v1/respiration/
p4829
sVdefault_format
p4830
Vapplication/json
p4831
sVdefault_limit
p4832
I20
sVallowed_list_http_methods
p4833
(lp4834
Vget
p4835
assVoauthaccesstoken
p4836
(dp4837
g44
g4836
sVallowed_detail_http_methods
p4838
(lp4839
Vget
p4840
aVput
p4841
aVpatch
p4842
aVdelete
p4843
asVfields
p4844
(dp4845
Vcreated
p4846
(dp4847
Vnullable
p4848
I00
sVdefault
p4849
I01
sVreadonly
p4850
I00
sVblank
p4851
I01
sVhelp_text
p4852
VA date & time as a string. Ex: "2010-11-10T03:07:43"
p4853
sVunique
p4854
I00
sVtype
p4855
Vdatetime
p4856
ssVaccess_token
p4857
(dp4858
g4848
I00
sg4849
VNo default provided.
p4859
sg4850
I00
sg4851
I00
sg4852
VUnicode string data. Ex: "Hello World"
p4860
sg4854
I01
sg4855
Vstring
p4861
ssVoauthclient
p4862
(dp4863
Vrelated_type
p4864
Vto_one
p4865
sg4848
I00
sg4849
VNo default provided.
p4866
sg4850
I00
sg4851
I00
sg4852
VA reference to [:r:oauthclient].  Maybe specified by URI or ID.  Using a URI is recommended.
p4867
sg4854
I00
sg4855
Vrelated
p4868
ssVuser
p4869
(dp4870
g4864
Vto_one
p4871
sg4848
I00
sg4849
VNo default provided.
p4872
sg4850
I00
sg4851
I00
sg4852
VA [:r:user].  Maybe specified by URI, email, or ID.  Using a URI is recommended.
p4873
sg4854
I00
sg4855
Vrelated
p4874
ssVaccess_token_secret
p4875
(dp4876
g4848
I00
sg4849
VNo default provided.
p4877
sg4850
I00
sg4851
I00
sg4852
VUnicode string data. Ex: "Hello World"
p4878
sg4854
I00
sg4855
Vstring
p4879
ssVid
p4880
(dp4881
g4848
I00
sg4849
VNo default provided.
p4882
sg4850
I01
sg4851
I00
sg4852
VThe primary key for this resource. Integer data. Ex: 2673
p4883
sg4854
I01
sg4855
Vinteger
p4884
ssVresource_uri
p4885
(dp4886
g4848
I00
sg4849
VNo default provided.
p4887
sg4850
I01
sg4851
I00
sg4852
VThe unique URI where the object resides.
p4888
sg4854
I00
sg4855
Vstring
p4889
sssg101
V/api/v1/oauthaccesstoken/
p4890
sVdefault_format
p4891
Vapplication/json
p4892
sVdefault_limit
p4893
I20
sVallowed_list_http_methods
p4894
(lp4895
Vget
p4896
aVpost
p4897
aVpatch
p4898
assVdatatype
p4899
(dp4900
g44
g4899
sVallowed_detail_http_methods
p4901
(lp4902
Vget
p4903
asVfields
p4904
(dp4905
Vinfo
p4906
(dp4907
Vnullable
p4908
I00
sVdefault
p4909
V
sVreadonly
p4910
I00
sVblank
p4911
I00
sVhelp_text
p4912
VUnicode string data. Ex: "Hello World"
p4913
sVunique
p4914
I00
sVtype
p4915
Vstring
p4916
ssVdataid
p4917
(dp4918
g4908
I00
sg4909
VNo default provided.
p4919
sg4910
I01
sg4911
I00
sg4912
VThe primary key for this resource. Integer data. Ex: 2673
p4920
sg4914
I01
sg4915
Vinteger
p4921
ssVname
p4922
(dp4923
g4908
I00
sg4909
VNo default provided.
p4924
sg4910
I00
sg4911
I00
sg4912
VUnicode string data. Ex: "Hello World"
p4925
sg4914
I00
sg4915
Vstring
p4926
ssVhexo_freq
p4927
(dp4928
g4908
I01
sg4909
VNo default provided.
p4929
sg4910
I00
sg4911
I00
sg4912
Vfrequency in 256ths of a second.  Derive Hz by 256/n.
p4930
sg4914
I00
sg4915
Vinteger
p4931
ssVresource_uri
p4932
(dp4933
g4908
I00
sg4909
VNo default provided.
p4934
sg4910
I01
sg4911
I00
sg4912
VThe unique URI where the object resides.
p4935
sg4914
I00
sg4915
Vstring
p4936
sssg101
V/api/v1/datatype/
p4937
sVdefault_format
p4938
Vapplication/json
p4939
sVdefault_limit
p4940
I20
sVallowed_list_http_methods
p4941
(lp4942
Vget
p4943
assVeventnotificationtrigger
p4944
(dp4945
g44
g4944
sVallowed_detail_http_methods
p4946
(lp4947
Vget
p4948
aVput
p4949
aVpatch
p4950
aVdelete
p4951
asVfields
p4952
(dp4953
Vdescription
p4954
(dp4955
Vnullable
p4956
I00
sVdefault
p4957
V
sVreadonly
p4958
I00
sVblank
p4959
I01
sVhelp_text
p4960
VUnicode string data. Ex: "Hello World"
p4961
sVunique
p4962
I00
sVtype
p4963
Vstring
p4964
ssVthreshold_type
p4965
(dp4966
g4956
I00
sg4957
VNo default provided.
p4967
sg4958
I00
sg4959
I00
sg4960
VUnicode string data. Ex: "Hello World"
p4968
sg4962
I00
sg4963
Vstring
p4969
ssVname
p4970
(dp4971
g4956
I00
sg4957
VNo default provided.
p4972
sg4958
I00
sg4959
I00
sg4960
VName of the trigger.
p4973
sg4962
I00
sg4963
Vstring
p4974
ssVuser
p4975
(dp4976
Vrelated_type
p4977
Vto_one
p4978
sg4956
I00
sg4957
VNo default provided.
p4979
sg4958
I00
sg4959
I00
sg4960
VThe user that will be notified.
p4980
sg4962
I00
sg4963
Vrelated
p4981
ssVid
p4982
(dp4983
g4956
I00
sg4957
VNo default provided.
p4984
sg4958
I01
sg4959
I00
sg4960
VThe primary key for this resource. Integer data. Ex: 2673
p4985
sg4962
I01
sg4963
Vinteger
p4986
ssVusers
p4987
(dp4988
g4977
Vto_many
p4989
sg4956
I00
sg4957
VNo default provided.
p4990
sg4958
I00
sg4959
I00
sg4960
VA list of [:r:user]s specified by URI.
p4991
sg4962
I00
sg4963
Vrelated
p4992
ssVtrainingroutine
p4993
(dp4994
g4977
Vto_many
p4995
sg4956
I01
sg4957
VNo default provided.
p4996
sg4958
I00
sg4959
I00
sg4960
VMany related resources. Can be either a list of URIs or list of individually nested resource data.
p4997
sg4962
I00
sg4963
Vrelated
p4998
ssVresource_uri
p4999
(dp5000
g4956
I00
sg4957
VNo default provided.
p5001
sg4958
I01
sg4959
I00
sg4960
VThe unique URI where the object resides.
p5002
sg4962
I00
sg4963
Vstring
p5003
sssg101
V/api/v1/eventnotificationtrigger/
p5004
sVdefault_format
p5005
Vapplication/json
p5006
sVdefault_limit
p5007
I20
sVallowed_list_http_methods
p5008
(lp5009
Vget
p5010
aVpost
p5011
assVlabel
p5012
(dp5013
g44
g5012
sVallowed_detail_http_methods
p5014
(lp5015
Vget
p5016
aVput
p5017
aVpatch
p5018
aVdelete
p5019
asVfields
p5020
(dp5021
Vuser
p5022
(dp5023
Vrelated_type
p5024
Vto_one
p5025
sVnullable
p5026
I00
sVdefault
p5027
VNo default provided.
p5028
sVreadonly
p5029
I00
sVblank
p5030
I00
sVhelp_text
p5031
VA [:r:user].  Maybe specified by URI, email, or ID.  Using a URI is recommended.
p5032
sVunique
p5033
I00
sVtype
p5034
Vrelated
p5035
ssVresource_uri
p5036
(dp5037
g5026
I00
sg5027
VNo default provided.
p5038
sg5029
I01
sg5030
I00
sg5031
VThe unique URI where the object resides.
p5039
sg5033
I00
sg5034
Vstring
p5040
ssVid
p5041
(dp5042
g5026
I00
sg5027
VNo default provided.
p5043
sg5029
I01
sg5030
I00
sg5031
VThe primary key for this resource. Integer data. Ex: 2673
p5044
sg5033
I01
sg5034
Vinteger
p5045
ssVname
p5046
(dp5047
g5026
I00
sg5027
VNo default provided.
p5048
sg5029
I00
sg5030
I00
sg5031
VUnicode string data. Ex: "Hello World"
p5049
sg5033
I00
sg5034
Vstring
p5050
sssg101
V/api/v1/label/
p5051
sVdefault_format
p5052
Vapplication/json
p5053
sVdefault_limit
p5054
I20
sVallowed_list_http_methods
p5055
(lp5056
Vget
p5057
aVpost
p5058
aVpatch
p5059
assVtemplatereport
p5060
(dp5061
Vfiltering
p5062
(dp5063
Vrecord
p5064
(lp5065
Vexact
p5066
aVin
p5067
asVrange
p5068
(lp5069
Vexact
p5070
aVin
p5071
asVend
p5072
(lp5073
Vexact
p5074
asVtrainingsession
p5075
(lp5076
Vexact
p5077
aVin
p5078
asVstart
p5079
(lp5080
Vexact
p5081
assg44
g5060
sVallowed_detail_http_methods
p5082
(lp5083
Vget
p5084
aVput
p5085
aVpatch
p5086
aVdelete
p5087
asVfields
p5088
(dp5089
Vname
p5090
(dp5091
Vnullable
p5092
I00
sVdefault
p5093
VNo default provided.
p5094
sVreadonly
p5095
I00
sVblank
p5096
I00
sVhelp_text
p5097
VName of template
p5098
sVunique
p5099
I00
sVtype
p5100
Vstring
p5101
ssVtitle
p5102
(dp5103
g5092
I00
sg5093
V
sg5095
I00
sg5096
I01
sg5097
VUnicode string data. Ex: "Hello World"
p5104
sg5099
I00
sg5100
Vstring
p5105
ssVextra_options
p5106
(dp5107
g5092
I00
sg5093
V
sg5095
I00
sg5096
I01
sg5097
VThis is used only with the report "list" and "list_tables", enter a comma-separated list of template ids that you want to insert as sub_resource
p5108
sg5099
I00
sg5100
Vstring
p5109
ssVmetric
p5110
(dp5111
Vrelated_type
p5112
Vto_many
p5113
sg5092
I00
sg5093
VNo default provided.
p5114
sg5095
I00
sg5096
I00
sg5097
VMany related resources. Can be either a list of URIs or list of individually nested resource data.
p5115
sg5099
I00
sg5100
Vrelated
p5116
ssVnote
p5117
(dp5118
g5092
I00
sg5093
V
sg5095
I00
sg5096
I01
sg5097
VUnicode string data. Ex: "Hello World"
p5119
sg5099
I00
sg5100
Vstring
p5120
ssVuser
p5121
(dp5122
g5112
Vto_one
p5123
sg5092
I01
sg5093
VNo default provided.
p5124
sg5095
I00
sg5096
I00
sg5097
V__nodoc__
p5125
sg5099
I00
sg5100
Vrelated
p5126
ssVfilters
p5127
(dp5128
g5092
I01
sg5093
V
sg5095
I00
sg5096
I00
sg5097
VEnter a dictionnary of selected filtering option Example: {"sort":"activitytype"}. 
p5129
sg5099
I00
sg5100
Vstring
p5130
ssVreport_type
p5131
(dp5132
g5092
I00
sg5093
VNo default provided.
p5133
sg5095
I00
sg5096
I00
sg5097
VFunction used to process raw data
p5134
sg5099
I00
sg5100
Vstring
p5135
ssVid
p5136
(dp5137
g5092
I00
sg5093
V
sg5095
I00
sg5096
I01
sg5097
VThe primary key for this resource. The primary key for this resource. Integer data. Ex: 2673
p5138
sg5099
I01
sg5100
Vinteger
p5139
ssVresource_uri
p5140
(dp5141
g5092
I00
sg5093
VNo default provided.
p5142
sg5095
I01
sg5096
I00
sg5097
VThe unique URI where the object resides.
p5143
sg5099
I00
sg5100
Vstring
p5144
sssg101
V/api/v1/templatereport/
p5145
sVdefault_format
p5146
Vapplication/json
p5147
sVdefault_limit
p5148
I20
sVallowed_list_http_methods
p5149
(lp5150
Vget
p5151
aVput
p5152
aVpost
p5153
aVpatch
p5154
assVcreaterelateduser
p5155
(dp5156
g44
g5155
sVallowed_detail_http_methods
p5157
(lp5158
Vget
p5159
aVput
p5160
asVfields
p5161
(dp5162
Vusername
p5163
(dp5164
Vnullable
p5165
I00
sVdefault
p5166
VNo default provided.
p5167
sVreadonly
p5168
I01
sVblank
p5169
I01
sVhelp_text
p5170
VSet to be the same as email.  Left in place for historical reasons.
p5171
sVunique
p5172
I00
sVtype
p5173
Vstring
p5174
ssVfirst_name
p5175
(dp5176
g5165
I00
sg5166
V
sg5168
I00
sg5169
I01
sg5170
VUnicode string data. Ex: "Hello World"
p5177
sg5172
I00
sg5173
Vstring
p5178
ssVlast_name
p5179
(dp5180
g5165
I00
sg5166
V
sg5168
I00
sg5169
I01
sg5170
VUnicode string data. Ex: "Hello World"
p5181
sg5172
I00
sg5173
Vstring
p5182
ssVbundles
p5183
(dp5184
g5165
I00
sg5166
VNo default provided.
p5185
sg5168
I00
sg5169
I00
sg5170
VAn array of Bundle URIs
p5186
sg5172
I00
sg5173
Vlist
p5187
ssVid
p5188
(dp5189
g5165
I00
sg5166
VNo default provided.
p5190
sg5168
I01
sg5169
I00
sg5170
VThe primary key for this resource. The primary key for this resource. The primary key for this resource. Integer data. Ex: 2673
p5191
sg5172
I01
sg5173
Vinteger
p5192
ssVpassword
p5193
(dp5194
g5165
I01
sg5166
VNo default provided.
p5195
sg5168
I00
sg5169
I01
sg5170
VUnicode string data. Ex: "Hello World"
p5196
sg5172
I00
sg5173
Vstring
p5197
ssVemail
p5198
(dp5199
g5165
I00
sg5166
VNo default provided.
p5200
sg5168
I00
sg5169
I00
sg5170
VUnicode string data. Ex: "Hello World"
p5201
sg5172
I00
sg5173
Vstring
p5202
ssVresource_uri
p5203
(dp5204
g5165
I00
sg5166
VNo default provided.
p5205
sg5168
I01
sg5169
I00
sg5170
VThe unique URI where the object resides.
p5206
sg5172
I00
sg5173
Vstring
p5207
sssg101
V/api/v1/createrelateduser/
p5208
sVdefault_format
p5209
Vapplication/json
p5210
sVdefault_limit
p5211
I20
sVallowed_list_http_methods
p5212
(lp5213
Vpost
p5214
assVminuteventilation
p5215
(dp5216
Vfiltering
p5217
(dp5218
Vflat
p5219
(lp5220
Vexact
p5221
asVend
p5222
(lp5223
Vexact
p5224
asVstart
p5225
(lp5226
Vexact
p5227
asVdatatype
p5228
(lp5229
Vexact
p5230
aVin
p5231
asVtimestamp
p5232
(lp5233
Vrange
p5234
aVgt
p5235
aVgte
p5236
aVlt
p5237
aVlte
p5238
asVno_timestamps
p5239
(lp5240
Vexact
p5241
asVrecord
p5242
(lp5243
Vexact
p5244
aVin
p5245
asVrange
p5246
(lp5247
Vexact
p5248
aVin
p5249
asVuser
p5250
(lp5251
Vexact
p5252
aVin
p5253
asVmax_values
p5254
(lp5255
Vexact
p5256
assg44
g5215
sVallowed_detail_http_methods
p5257
(lp5258
sVfields
p5259
(dp5260
g5219
(dp5261
Vnullable
p5262
I00
sVdefault
p5263
VNo default provided.
p5264
sVreadonly
p5265
I00
sVblank
p5266
I00
sVhelp_text
p5267
V__nodoc__
p5268
sVunique
p5269
I00
sVtype
p5270
Vinteger
p5271
ssg5222
(dp5272
g5262
I00
sg5263
VNo default provided.
p5273
sg5265
I00
sg5266
I00
sg5267
V__nodoc__
p5274
sg5269
I00
sg5270
Vinteger
p5275
ssg5225
(dp5276
g5262
I00
sg5263
VNo default provided.
p5277
sg5265
I00
sg5266
I00
sg5267
V__nodoc__
p5278
sg5269
I00
sg5270
Vinteger
p5279
ssg5228
(dp5280
Vrelated_type
p5281
Vto_one
p5282
sg5262
I00
sg5263
VNo default provided.
p5283
sg5265
I00
sg5266
I01
sg5267
V__nodoc__
p5284
sg5269
I00
sg5270
Vrelated
p5285
ssg5232
(dp5286
g5262
I00
sg5263
VNo default provided.
p5287
sg5265
I00
sg5266
I00
sg5267
V__nodoc__
p5288
sg5269
I00
sg5270
Vinteger
p5289
ssg5239
(dp5290
g5262
I00
sg5263
VNo default provided.
p5291
sg5265
I00
sg5266
I00
sg5267
V__nodoc__
p5292
sg5269
I00
sg5270
Vinteger
p5293
ssg5242
(dp5294
g5281
Vto_one
p5295
sg5262
I01
sg5263
VNo default provided.
p5296
sg5265
I00
sg5266
I01
sg5267
V__nodoc__
p5297
sg5269
I00
sg5270
Vrelated
p5298
ssg5246
(dp5299
g5281
Vto_one
p5300
sg5262
I00
sg5263
VNo default provided.
p5301
sg5265
I00
sg5266
I00
sg5267
V__nodoc__
p5302
sg5269
I00
sg5270
Vrelated
p5303
ssg5250
(dp5304
g5281
Vto_one
p5305
sg5262
I00
sg5263
VNo default provided.
p5306
sg5265
I00
sg5266
I00
sg5267
V__nodoc__
p5307
sg5269
I00
sg5270
Vrelated
p5308
ssg5254
(dp5309
g5262
I00
sg5263
VNo default provided.
p5310
sg5265
I00
sg5266
I00
sg5267
V__nodoc__
p5311
sg5269
I00
sg5270
Vinteger
p5312
sssg101
V/api/v1/minuteventilation/
p5313
sVdefault_format
p5314
Vapplication/json
p5315
sVdefault_limit
p5316
I20
sVallowed_list_http_methods
p5317
(lp5318
Vget
p5319
assVtemperaturestatus
p5320
(dp5321
Vfiltering
p5322
(dp5323
Vflat
p5324
(lp5325
Vexact
p5326
asVend
p5327
(lp5328
Vexact
p5329
asVstart
p5330
(lp5331
Vexact
p5332
asVdatatype
p5333
(lp5334
Vexact
p5335
aVin
p5336
asVtimestamp
p5337
(lp5338
Vrange
p5339
aVgt
p5340
aVgte
p5341
aVlt
p5342
aVlte
p5343
asVno_timestamps
p5344
(lp5345
Vexact
p5346
asVrecord
p5347
(lp5348
Vexact
p5349
aVin
p5350
asVrange
p5351
(lp5352
Vexact
p5353
aVin
p5354
asVuser
p5355
(lp5356
Vexact
p5357
aVin
p5358
asVmax_values
p5359
(lp5360
Vexact
p5361
assg44
g5320
sVallowed_detail_http_methods
p5362
(lp5363
sVfields
p5364
(dp5365
g5324
(dp5366
Vnullable
p5367
I00
sVdefault
p5368
VNo default provided.
p5369
sVreadonly
p5370
I00
sVblank
p5371
I00
sVhelp_text
p5372
V__nodoc__
p5373
sVunique
p5374
I00
sVtype
p5375
Vinteger
p5376
ssg5327
(dp5377
g5367
I00
sg5368
VNo default provided.
p5378
sg5370
I00
sg5371
I00
sg5372
V__nodoc__
p5379
sg5374
I00
sg5375
Vinteger
p5380
ssg5330
(dp5381
g5367
I00
sg5368
VNo default provided.
p5382
sg5370
I00
sg5371
I00
sg5372
V__nodoc__
p5383
sg5374
I00
sg5375
Vinteger
p5384
ssg5333
(dp5385
Vrelated_type
p5386
Vto_one
p5387
sg5367
I00
sg5368
VNo default provided.
p5388
sg5370
I00
sg5371
I01
sg5372
V__nodoc__
p5389
sg5374
I00
sg5375
Vrelated
p5390
ssg5337
(dp5391
g5367
I00
sg5368
VNo default provided.
p5392
sg5370
I00
sg5371
I00
sg5372
V__nodoc__
p5393
sg5374
I00
sg5375
Vinteger
p5394
ssg5344
(dp5395
g5367
I00
sg5368
VNo default provided.
p5396
sg5370
I00
sg5371
I00
sg5372
V__nodoc__
p5397
sg5374
I00
sg5375
Vinteger
p5398
ssg5347
(dp5399
g5386
Vto_one
p5400
sg5367
I01
sg5368
VNo default provided.
p5401
sg5370
I00
sg5371
I01
sg5372
V__nodoc__
p5402
sg5374
I00
sg5375
Vrelated
p5403
ssg5351
(dp5404
g5386
Vto_one
p5405
sg5367
I00
sg5368
VNo default provided.
p5406
sg5370
I00
sg5371
I00
sg5372
V__nodoc__
p5407
sg5374
I00
sg5375
Vrelated
p5408
ssg5355
(dp5409
g5386
Vto_one
p5410
sg5367
I00
sg5368
VNo default provided.
p5411
sg5370
I00
sg5371
I00
sg5372
V__nodoc__
p5412
sg5374
I00
sg5375
Vrelated
p5413
ssg5359
(dp5414
g5367
I00
sg5368
VNo default provided.
p5415
sg5370
I00
sg5371
I00
sg5372
V__nodoc__
p5416
sg5374
I00
sg5375
Vinteger
p5417
sssg101
V/api/v1/temperaturestatus/
p5418
sVdefault_format
p5419
Vapplication/json
p5420
sVdefault_limit
p5421
I20
sVallowed_list_http_methods
p5422
(lp5423
Vget
p5424
assVrange
p5425
(dp5426
Vfiltering
p5427
(dp5428
Vinclude_report
p5429
(lp5430
Vexact
p5431
asVend
p5432
(lp5433
Vexact
p5434
aVrange
p5435
aVgt
p5436
aVgte
p5437
aVlt
p5438
aVlte
p5439
asVinclude_metrics
p5440
(lp5441
Vexact
p5442
asVlabels
p5443
(lp5444
Vexact
p5445
aVin
p5446
asVrank
p5447
(lp5448
Vexact
p5449
aVin
p5450
asVtrainingroutine
p5451
I2
sVstart
p5452
(lp5453
Vexact
p5454
aVrange
p5455
aVgt
p5456
aVgte
p5457
aVlt
p5458
aVlte
p5459
asVuser
p5460
(lp5461
Vexact
p5462
aVin
p5463
asVduration
p5464
(lp5465
Vexact
p5466
aVin
p5467
aVgt
p5468
aVgte
p5469
aVlt
p5470
aVlte
p5471
asVid
p5472
(lp5473
Vexact
p5474
aVin
p5475
assg44
g5425
sVallowed_detail_http_methods
p5476
(lp5477
Vget
p5478
aVput
p5479
aVpatch
p5480
aVdelete
p5481
asVordering
p5482
(lp5483
Vstart
p5484
asVfields
p5485
(dp5486
Vstatus
p5487
(dp5488
Vnullable
p5489
I00
sVdefault
p5490
VNo default provided.
p5491
sVreadonly
p5492
I01
sVblank
p5493
I00
sVhelp_text
p5494
VThe status as derived from the Records available in this Range.
p5495
sVunique
p5496
I00
sVtype
p5497
Vstring
p5498
ssVnote
p5499
(dp5500
g5489
I00
sg5490
V
sg5492
I00
sg5493
I01
sg5494
VUnicode string data. Ex: "Hello World"
p5501
sg5496
I00
sg5497
Vstring
p5502
ssg5432
(dp5503
g5489
I00
sg5490
VNo default provided.
p5504
sg5492
I00
sg5493
I00
sg5494
V An integer indicating the number of 256ths of a second that have passed since Jan 1, 1970 UTC, ie. a traditional timestamp, multiplied by 256.
p5505
sg5496
I00
sg5497
Vinteger
p5506
ssVname
p5507
(dp5508
g5489
I00
sg5490
V
sg5492
I00
sg5493
I01
sg5494
VUnicode string data. Ex: "Hello World"
p5509
sg5496
I00
sg5497
Vstring
p5510
ssVparent
p5511
(dp5512
Vrelated_type
p5513
Vto_one
p5514
sg5489
I01
sg5490
VNo default provided.
p5515
sg5492
I00
sg5493
I01
sg5494
VA reference to [:r:range].  Maybe specified by URI or ID.  Using a URI is recommended.
p5516
sg5496
I00
sg5497
Vrelated
p5517
ssVcreated
p5518
(dp5519
g5489
I00
sg5490
VNo default provided.
p5520
sg5492
I01
sg5493
I00
sg5494
VCreated automatically
p5521
sg5496
I00
sg5497
Vdatetime
p5522
ssg5443
(dp5523
g5513
Vto_many
p5524
sg5489
I01
sg5490
VNo default provided.
p5525
sg5492
I00
sg5493
I01
sg5494
VMany related resources. Can be either a list of URIs or list of individually nested resource data.
p5526
sg5496
I00
sg5497
Vrelated
p5527
ssVranges
p5528
(dp5529
g5489
I00
sg5490
VNo default provided.
p5530
sg5492
I01
sg5493
I00
sg5494
VContains child ranges.  This field is only populated in the detail view.  Ranges in a list of ranges will not contain this attribute.
p5531
sg5496
I00
sg5497
Vstring
p5532
ssg5447
(dp5533
g5489
I00
sg5490
I0
sg5492
I00
sg5493
I01
sg5494
VInteger data. Ex: 2673
p5534
sg5496
I00
sg5497
Vinteger
p5535
ssVstart_date
p5536
(dp5537
g5489
I00
sg5490
VNo default provided.
p5538
sg5492
I01
sg5493
I00
sg5494
VA date & time as a string. Ex: "2010-11-10T03:07:43"
p5539
sg5496
I00
sg5497
Vdatetime
p5540
ssVmetrics
p5541
(dp5542
g5513
Vto_many
p5543
sg5489
I01
sg5490
VNo default provided.
p5544
sg5492
I01
sg5493
I01
sg5494
VThis field will contain the metrics specified in in `include_metrics`.  If this argument is not supplied or there are no metrics for the given Range, it will be blank.
p5545
sg5496
I00
sg5497
Vrelated
p5546
ssg5452
(dp5547
g5489
I00
sg5490
VNo default provided.
p5548
sg5492
I00
sg5493
I00
sg5494
V An integer indicating the number of 256ths of a second that have passed since Jan 1, 1970 UTC, ie. a traditional timestamp, multiplied by 256.
p5549
sg5496
I00
sg5497
Vinteger
p5550
ssg5460
(dp5551
g5513
Vto_one
p5552
sg5489
I00
sg5490
VNo default provided.
p5553
sg5492
I00
sg5493
I00
sg5494
VA [:r:user].  Maybe specified by URI, email, or ID.  Using a URI is recommended.
p5554
sg5496
I00
sg5497
Vrelated
p5555
ssVactivityattributes
p5556
(dp5557
g5513
Vto_many
p5558
sg5489
I01
sg5490
VNo default provided.
p5559
sg5492
I00
sg5493
I01
sg5494
VMany related resources. Can be either a list of URIs or list of individually nested resource data.
p5560
sg5496
I00
sg5497
Vrelated
p5561
ssg5464
(dp5562
g5489
I00
sg5490
VNo default provided.
p5563
sg5492
I01
sg5493
I00
sg5494
VUnicode string data. Ex: "Hello World"
p5564
sg5496
I00
sg5497
Vstring
p5565
ssg5451
(dp5566
g5513
Vto_one
p5567
sg5489
I01
sg5490
VNo default provided.
p5568
sg5492
I00
sg5493
I00
sg5494
VA reference to [:r:trainingroutine].  Maybe specified by URI or ID.  Using a URI is recommended.
p5569
sg5496
I00
sg5497
Vrelated
p5570
ssg5472
(dp5571
g5489
I00
sg5490
VNo default provided.
p5572
sg5492
I01
sg5493
I00
sg5494
VThe primary key for this resource. Integer data. Ex: 2673
p5573
sg5496
I01
sg5497
Vinteger
p5574
ssVresource_uri
p5575
(dp5576
g5489
I00
sg5490
VNo default provided.
p5577
sg5492
I01
sg5493
I00
sg5494
VThe unique URI where the object resides.
p5578
sg5496
I00
sg5497
Vstring
p5579
sssg101
V/api/v1/range/
p5580
sVdefault_format
p5581
Vapplication/json
p5582
sVdefault_limit
p5583
I20
sVallowed_list_http_methods
p5584
(lp5585
Vget
p5586
aVpost
p5587
aVpatch
p5588
assVexpiration
p5589
(dp5590
Vfiltering
p5591
(dp5592
Vflat
p5593
(lp5594
Vexact
p5595
asVend
p5596
(lp5597
Vexact
p5598
asVstart
p5599
(lp5600
Vexact
p5601
asVdatatype
p5602
(lp5603
Vexact
p5604
aVin
p5605
asVtimestamp
p5606
(lp5607
Vrange
p5608
aVgt
p5609
aVgte
p5610
aVlt
p5611
aVlte
p5612
asVno_timestamps
p5613
(lp5614
Vexact
p5615
asVrecord
p5616
(lp5617
Vexact
p5618
aVin
p5619
asVrange
p5620
(lp5621
Vexact
p5622
aVin
p5623
asVuser
p5624
(lp5625
Vexact
p5626
aVin
p5627
asVmax_values
p5628
(lp5629
Vexact
p5630
assg44
g5589
sVallowed_detail_http_methods
p5631
(lp5632
sVfields
p5633
(dp5634
g5593
(dp5635
Vnullable
p5636
I00
sVdefault
p5637
VNo default provided.
p5638
sVreadonly
p5639
I00
sVblank
p5640
I00
sVhelp_text
p5641
V__nodoc__
p5642
sVunique
p5643
I00
sVtype
p5644
Vinteger
p5645
ssg5596
(dp5646
g5636
I00
sg5637
VNo default provided.
p5647
sg5639
I00
sg5640
I00
sg5641
V__nodoc__
p5648
sg5643
I00
sg5644
Vinteger
p5649
ssg5599
(dp5650
g5636
I00
sg5637
VNo default provided.
p5651
sg5639
I00
sg5640
I00
sg5641
V__nodoc__
p5652
sg5643
I00
sg5644
Vinteger
p5653
ssg5602
(dp5654
Vrelated_type
p5655
Vto_one
p5656
sg5636
I00
sg5637
VNo default provided.
p5657
sg5639
I00
sg5640
I01
sg5641
V__nodoc__
p5658
sg5643
I00
sg5644
Vrelated
p5659
ssg5606
(dp5660
g5636
I00
sg5637
VNo default provided.
p5661
sg5639
I00
sg5640
I00
sg5641
V__nodoc__
p5662
sg5643
I00
sg5644
Vinteger
p5663
ssg5613
(dp5664
g5636
I00
sg5637
VNo default provided.
p5665
sg5639
I00
sg5640
I00
sg5641
V__nodoc__
p5666
sg5643
I00
sg5644
Vinteger
p5667
ssg5616
(dp5668
g5655
Vto_one
p5669
sg5636
I01
sg5637
VNo default provided.
p5670
sg5639
I00
sg5640
I01
sg5641
V__nodoc__
p5671
sg5643
I00
sg5644
Vrelated
p5672
ssg5620
(dp5673
g5655
Vto_one
p5674
sg5636
I00
sg5637
VNo default provided.
p5675
sg5639
I00
sg5640
I00
sg5641
V__nodoc__
p5676
sg5643
I00
sg5644
Vrelated
p5677
ssg5624
(dp5678
g5655
Vto_one
p5679
sg5636
I00
sg5637
VNo default provided.
p5680
sg5639
I00
sg5640
I00
sg5641
V__nodoc__
p5681
sg5643
I00
sg5644
Vrelated
p5682
ssg5628
(dp5683
g5636
I00
sg5637
VNo default provided.
p5684
sg5639
I00
sg5640
I00
sg5641
V__nodoc__
p5685
sg5643
I00
sg5644
Vinteger
p5686
sssg101
V/api/v1/expiration/
p5687
sVdefault_format
p5688
Vapplication/json
p5689
sVdefault_limit
p5690
I20
sVallowed_list_http_methods
p5691
(lp5692
Vget
p5693
assVteam
p5694
(dp5695
Vfiltering
p5696
(dp5697
Vid
p5698
(lp5699
Vexact
p5700
aVin
p5701
asVname
p5702
(lp5703
Vexact
p5704
assg44
g5694
sVallowed_detail_http_methods
p5705
(lp5706
Vget
p5707
aVput
p5708
aVpatch
p5709
aVdelete
p5710
asVordering
p5711
(lp5712
Vname
p5713
asVfields
p5714
(dp5715
Vowner
p5716
(dp5717
Vrelated_type
p5718
Vto_one
p5719
sVnullable
p5720
I00
sVdefault
p5721
VNo default provided.
p5722
sVreadonly
p5723
I00
sVblank
p5724
I00
sVhelp_text
p5725
VA [:r:user].  Maybe specified by URI, email, or ID.  Using a URI is recommended.
p5726
sVunique
p5727
I00
sVtype
p5728
Vrelated
p5729
ssVresource_uri
p5730
(dp5731
g5720
I00
sg5721
VNo default provided.
p5732
sg5723
I01
sg5724
I00
sg5725
VThe unique URI where the object resides.
p5733
sg5727
I00
sg5728
Vstring
p5734
ssg5698
(dp5735
g5720
I00
sg5721
VNo default provided.
p5736
sg5723
I01
sg5724
I00
sg5725
VThe primary key for this resource. Integer data. Ex: 2673
p5737
sg5727
I01
sg5728
Vinteger
p5738
ssVmembers
p5739
(dp5740
g5718
Vto_many
p5741
sg5720
I00
sg5721
VNo default provided.
p5742
sg5723
I00
sg5724
I00
sg5725
VA list of [:r:user]s specified by URI.
p5743
sg5727
I00
sg5728
Vrelated
p5744
ssg5702
(dp5745
g5720
I00
sg5721
VNo default provided.
p5746
sg5723
I00
sg5724
I00
sg5725
VTeam name
p5747
sg5727
I00
sg5728
Vstring
p5748
sssg101
V/api/v1/team/
p5749
sVdefault_format
p5750
Vapplication/json
p5751
sVdefault_limit
p5752
I20
sVallowed_list_http_methods
p5753
(lp5754
Vget
p5755
aVpost
p5756
assVactivitylog
p5757
(dp5758
Vfiltering
p5759
(dp5760
Vresource_name
p5761
(lp5762
Vexact
p5763
aVin
p5764
asVobject_resource_uri
p5765
(lp5766
Vexact
p5767
aVin
p5768
aVisnull
p5769
asVobject_id
p5770
(lp5771
Vexact
p5772
aVin
p5773
aVisnull
p5774
asVlastchange
p5775
(lp5776
Vtrue
p5777
asVuser
p5778
(lp5779
Vexact
p5780
aVin
p5781
asVdate
p5782
(lp5783
Vexact
p5784
aVrange
p5785
aVgt
p5786
aVgte
p5787
aVlt
p5788
aVlte
p5789
asVmethod
p5790
(lp5791
Vexact
p5792
aVin
p5793
assg44
g5757
sVallowed_detail_http_methods
p5794
(lp5795
Vget
p5796
asVfields
p5797
(dp5798
g5761
(dp5799
Vnullable
p5800
I00
sVdefault
p5801
VNo default provided.
p5802
sVreadonly
p5803
I00
sVblank
p5804
I00
sVhelp_text
p5805
VUnicode string data. Ex: "Hello World"
p5806
sVunique
p5807
I00
sVtype
p5808
Vstring
p5809
ssg5765
(dp5810
g5800
I01
sg5801
VNo default provided.
p5811
sg5803
I00
sg5804
I00
sg5805
VUnicode string data. Ex: "Hello World"
p5812
sg5807
I00
sg5808
Vstring
p5813
ssg5770
(dp5814
g5800
I01
sg5801
Nsg5803
I00
sg5804
I00
sg5805
VInteger data. Ex: 2673
p5815
sg5807
I00
sg5808
Vinteger
p5816
ssg5790
(dp5817
g5800
I00
sg5801
VNo default provided.
p5818
sg5803
I00
sg5804
I00
sg5805
VUnicode string data. Ex: "Hello World"
p5819
sg5807
I00
sg5808
Vstring
p5820
ssVapplication
p5821
(dp5822
Vrelated_type
p5823
Vto_one
p5824
sg5800
I01
sg5801
VNo default provided.
p5825
sg5803
I00
sg5804
I00
sg5805
VA reference to [:r:application].  Maybe specified by URI or ID.  Using a URI is recommended.
p5826
sg5807
I00
sg5808
Vrelated
p5827
ssg5778
(dp5828
g5823
Vto_one
p5829
sg5800
I00
sg5801
VNo default provided.
p5830
sg5803
I00
sg5804
I00
sg5805
VA [:r:user].  Maybe specified by URI, email, or ID.  Using a URI is recommended.
p5831
sg5807
I00
sg5808
Vrelated
p5832
ssVcontent_type
p5833
(dp5834
g5823
Vto_one
p5835
sg5800
I01
sg5801
VNo default provided.
p5836
sg5803
I00
sg5804
I00
sg5805
VA reference to [:r:content_type].  Maybe specified by URI or ID.  Using a URI is recommended.
p5837
sg5807
I00
sg5808
Vrelated
p5838
ssg5782
(dp5839
g5800
I00
sg5801
I01
sg5803
I00
sg5804
I01
sg5805
VA date & time as a string. Ex: "2010-11-10T03:07:43"
p5840
sg5807
I00
sg5808
Vdatetime
p5841
ssVpath
p5842
(dp5843
g5800
I00
sg5801
VNo default provided.
p5844
sg5803
I00
sg5804
I00
sg5805
VUnicode string data. Ex: "Hello World"
p5845
sg5807
I00
sg5808
Vstring
p5846
ssVid
p5847
(dp5848
g5800
I00
sg5801
VNo default provided.
p5849
sg5803
I01
sg5804
I00
sg5805
VThe primary key for this resource. Integer data. Ex: 2673
p5850
sg5807
I01
sg5808
Vinteger
p5851
ssVresource_uri
p5852
(dp5853
g5800
I00
sg5801
VNo default provided.
p5854
sg5803
I01
sg5804
I00
sg5805
VThe unique URI where the object resides.
p5855
sg5807
I00
sg5808
Vstring
p5856
sssg101
V/api/v1/activitylog/
p5857
sVdefault_format
p5858
Vapplication/json
p5859
sVdefault_limit
p5860
I20
sVallowed_list_http_methods
p5861
(lp5862
Vget
p5863
assVtidalvolume
p5864
(dp5865
Vfiltering
p5866
(dp5867
Vflat
p5868
(lp5869
Vexact
p5870
asVend
p5871
(lp5872
Vexact
p5873
asVstart
p5874
(lp5875
Vexact
p5876
asVdatatype
p5877
(lp5878
Vexact
p5879
aVin
p5880
asVtimestamp
p5881
(lp5882
Vrange
p5883
aVgt
p5884
aVgte
p5885
aVlt
p5886
aVlte
p5887
asVno_timestamps
p5888
(lp5889
Vexact
p5890
asVrecord
p5891
(lp5892
Vexact
p5893
aVin
p5894
asVrange
p5895
(lp5896
Vexact
p5897
aVin
p5898
asVuser
p5899
(lp5900
Vexact
p5901
aVin
p5902
asVmax_values
p5903
(lp5904
Vexact
p5905
assg44
g5864
sVallowed_detail_http_methods
p5906
(lp5907
sVfields
p5908
(dp5909
g5868
(dp5910
Vnullable
p5911
I00
sVdefault
p5912
VNo default provided.
p5913
sVreadonly
p5914
I00
sVblank
p5915
I00
sVhelp_text
p5916
V__nodoc__
p5917
sVunique
p5918
I00
sVtype
p5919
Vinteger
p5920
ssg5871
(dp5921
g5911
I00
sg5912
VNo default provided.
p5922
sg5914
I00
sg5915
I00
sg5916
V__nodoc__
p5923
sg5918
I00
sg5919
Vinteger
p5924
ssg5874
(dp5925
g5911
I00
sg5912
VNo default provided.
p5926
sg5914
I00
sg5915
I00
sg5916
V__nodoc__
p5927
sg5918
I00
sg5919
Vinteger
p5928
ssg5877
(dp5929
Vrelated_type
p5930
Vto_one
p5931
sg5911
I00
sg5912
VNo default provided.
p5932
sg5914
I00
sg5915
I01
sg5916
V__nodoc__
p5933
sg5918
I00
sg5919
Vrelated
p5934
ssg5881
(dp5935
g5911
I00
sg5912
VNo default provided.
p5936
sg5914
I00
sg5915
I00
sg5916
V__nodoc__
p5937
sg5918
I00
sg5919
Vinteger
p5938
ssg5888
(dp5939
g5911
I00
sg5912
VNo default provided.
p5940
sg5914
I00
sg5915
I00
sg5916
V__nodoc__
p5941
sg5918
I00
sg5919
Vinteger
p5942
ssg5891
(dp5943
g5930
Vto_one
p5944
sg5911
I01
sg5912
VNo default provided.
p5945
sg5914
I00
sg5915
I01
sg5916
V__nodoc__
p5946
sg5918
I00
sg5919
Vrelated
p5947
ssg5895
(dp5948
g5930
Vto_one
p5949
sg5911
I00
sg5912
VNo default provided.
p5950
sg5914
I00
sg5915
I00
sg5916
V__nodoc__
p5951
sg5918
I00
sg5919
Vrelated
p5952
ssg5899
(dp5953
g5930
Vto_one
p5954
sg5911
I00
sg5912
VNo default provided.
p5955
sg5914
I00
sg5915
I00
sg5916
V__nodoc__
p5956
sg5918
I00
sg5919
Vrelated
p5957
ssg5903
(dp5958
g5911
I00
sg5912
VNo default provided.
p5959
sg5914
I00
sg5915
I00
sg5916
V__nodoc__
p5960
sg5918
I00
sg5919
Vinteger
p5961
sssg101
V/api/v1/tidalvolume/
p5962
sVdefault_format
p5963
Vapplication/json
p5964
sVdefault_limit
p5965
I20
sVallowed_list_http_methods
p5966
(lp5967
Vget
p5968
assVchangeemail
p5969
(dp5970
Vfiltering
p5971
(dp5972
Vemail
p5973
(lp5974
Vexact
p5975
asVid
p5976
(lp5977
Vexact
p5978
aVin
p5979
assg44
g5969
sVallowed_detail_http_methods
p5980
(lp5981
Vget
p5982
aVput
p5983
asVfields
p5984
(dp5985
Vprofile
p5986
(dp5987
Vrelated_type
p5988
Vto_one
p5989
sVnullable
p5990
I01
sVdefault
p5991
VNo default provided.
p5992
sVreadonly
p5993
I01
sVblank
p5994
I01
sVhelp_text
p5995
VA reference to [:r:profile].  Maybe specified by URI or ID.  Using a URI is recommended.
p5996
sVunique
p5997
I00
sVtype
p5998
Vrelated
p5999
ssVusername
p6000
(dp6001
g5990
I00
sg5991
VNo default provided.
p6002
sg5993
I01
sg5994
I01
sg5995
VSet to be the same as email.  Left in place for historical reasons.
p6003
sg5997
I01
sg5998
Vstring
p6004
ssVfirst_name
p6005
(dp6006
g5990
I00
sg5991
V
sg5993
I00
sg5994
I01
sg5995
VUnicode string data. Ex: "Hello World"
p6007
sg5997
I00
sg5998
Vstring
p6008
ssVlast_name
p6009
(dp6010
g5990
I00
sg5991
V
sg5993
I00
sg5994
I01
sg5995
VUnicode string data. Ex: "Hello World"
p6011
sg5997
I00
sg5998
Vstring
p6012
ssg5976
(dp6013
g5990
I00
sg5991
VNo default provided.
p6014
sg5993
I01
sg5994
I00
sg5995
VThe primary key for this resource. The primary key for this resource. Integer data. Ex: 2673
p6015
sg5997
I01
sg5998
Vinteger
p6016
ssg5973
(dp6017
g5990
I00
sg5991
VNo default provided.
p6018
sg5993
I01
sg5994
I01
sg5995
VCannot change without an email confirmation loop
p6019
sg5997
I01
sg5998
Vstring
p6020
ssVresource_uri
p6021
(dp6022
g5990
I00
sg5991
VNo default provided.
p6023
sg5993
I01
sg5994
I00
sg5995
VThe unique URI where the object resides.
p6024
sg5997
I00
sg5998
Vstring
p6025
sssg101
V/api/v1/changeemail/
p6026
sVdefault_format
p6027
Vapplication/json
p6028
sVdefault_limit
p6029
I20
sVallowed_list_http_methods
p6030
(lp6031
Vpost
p6032
assVhrvlfratio
p6033
(dp6034
Vfiltering
p6035
(dp6036
Vflat
p6037
(lp6038
Vexact
p6039
asVend
p6040
(lp6041
Vexact
p6042
asVstart
p6043
(lp6044
Vexact
p6045
asVdatatype
p6046
(lp6047
Vexact
p6048
aVin
p6049
asVtimestamp
p6050
(lp6051
Vrange
p6052
aVgt
p6053
aVgte
p6054
aVlt
p6055
aVlte
p6056
asVno_timestamps
p6057
(lp6058
Vexact
p6059
asVrecord
p6060
(lp6061
Vexact
p6062
aVin
p6063
asVrange
p6064
(lp6065
Vexact
p6066
aVin
p6067
asVuser
p6068
(lp6069
Vexact
p6070
aVin
p6071
asVmax_values
p6072
(lp6073
Vexact
p6074
assg44
g6033
sVallowed_detail_http_methods
p6075
(lp6076
sVfields
p6077
(dp6078
g6037
(dp6079
Vnullable
p6080
I00
sVdefault
p6081
VNo default provided.
p6082
sVreadonly
p6083
I00
sVblank
p6084
I00
sVhelp_text
p6085
V__nodoc__
p6086
sVunique
p6087
I00
sVtype
p6088
Vinteger
p6089
ssg6040
(dp6090
g6080
I00
sg6081
VNo default provided.
p6091
sg6083
I00
sg6084
I00
sg6085
V__nodoc__
p6092
sg6087
I00
sg6088
Vinteger
p6093
ssg6043
(dp6094
g6080
I00
sg6081
VNo default provided.
p6095
sg6083
I00
sg6084
I00
sg6085
V__nodoc__
p6096
sg6087
I00
sg6088
Vinteger
p6097
ssg6046
(dp6098
Vrelated_type
p6099
Vto_one
p6100
sg6080
I00
sg6081
VNo default provided.
p6101
sg6083
I00
sg6084
I01
sg6085
V__nodoc__
p6102
sg6087
I00
sg6088
Vrelated
p6103
ssg6050
(dp6104
g6080
I00
sg6081
VNo default provided.
p6105
sg6083
I00
sg6084
I00
sg6085
V__nodoc__
p6106
sg6087
I00
sg6088
Vinteger
p6107
ssg6057
(dp6108
g6080
I00
sg6081
VNo default provided.
p6109
sg6083
I00
sg6084
I00
sg6085
V__nodoc__
p6110
sg6087
I00
sg6088
Vinteger
p6111
ssg6060
(dp6112
g6099
Vto_one
p6113
sg6080
I01
sg6081
VNo default provided.
p6114
sg6083
I00
sg6084
I01
sg6085
V__nodoc__
p6115
sg6087
I00
sg6088
Vrelated
p6116
ssg6064
(dp6117
g6099
Vto_one
p6118
sg6080
I00
sg6081
VNo default provided.
p6119
sg6083
I00
sg6084
I00
sg6085
V__nodoc__
p6120
sg6087
I00
sg6088
Vrelated
p6121
ssg6068
(dp6122
g6099
Vto_one
p6123
sg6080
I00
sg6081
VNo default provided.
p6124
sg6083
I00
sg6084
I00
sg6085
V__nodoc__
p6125
sg6087
I00
sg6088
Vrelated
p6126
ssg6072
(dp6127
g6080
I00
sg6081
VNo default provided.
p6128
sg6083
I00
sg6084
I00
sg6085
V__nodoc__
p6129
sg6087
I00
sg6088
Vinteger
p6130
sssg101
V/api/v1/hrvlfratio/
p6131
sVdefault_format
p6132
Vapplication/json
p6133
sVdefault_limit
p6134
I20
sVallowed_list_http_methods
p6135
(lp6136
Vget
p6137
assVqrsstatus
p6138
(dp6139
Vfiltering
p6140
(dp6141
Vflat
p6142
(lp6143
Vexact
p6144
asVend
p6145
(lp6146
Vexact
p6147
asVstart
p6148
(lp6149
Vexact
p6150
asVdatatype
p6151
(lp6152
Vexact
p6153
aVin
p6154
asVtimestamp
p6155
(lp6156
Vrange
p6157
aVgt
p6158
aVgte
p6159
aVlt
p6160
aVlte
p6161
asVno_timestamps
p6162
(lp6163
Vexact
p6164
asVrecord
p6165
(lp6166
Vexact
p6167
aVin
p6168
asVrange
p6169
(lp6170
Vexact
p6171
aVin
p6172
asVuser
p6173
(lp6174
Vexact
p6175
aVin
p6176
asVmax_values
p6177
(lp6178
Vexact
p6179
assg44
g6138
sVallowed_detail_http_methods
p6180
(lp6181
sVfields
p6182
(dp6183
g6142
(dp6184
Vnullable
p6185
I00
sVdefault
p6186
VNo default provided.
p6187
sVreadonly
p6188
I00
sVblank
p6189
I00
sVhelp_text
p6190
V__nodoc__
p6191
sVunique
p6192
I00
sVtype
p6193
Vinteger
p6194
ssg6145
(dp6195
g6185
I00
sg6186
VNo default provided.
p6196
sg6188
I00
sg6189
I00
sg6190
V__nodoc__
p6197
sg6192
I00
sg6193
Vinteger
p6198
ssg6148
(dp6199
g6185
I00
sg6186
VNo default provided.
p6200
sg6188
I00
sg6189
I00
sg6190
V__nodoc__
p6201
sg6192
I00
sg6193
Vinteger
p6202
ssg6151
(dp6203
Vrelated_type
p6204
Vto_one
p6205
sg6185
I00
sg6186
VNo default provided.
p6206
sg6188
I00
sg6189
I01
sg6190
V__nodoc__
p6207
sg6192
I00
sg6193
Vrelated
p6208
ssg6155
(dp6209
g6185
I00
sg6186
VNo default provided.
p6210
sg6188
I00
sg6189
I00
sg6190
V__nodoc__
p6211
sg6192
I00
sg6193
Vinteger
p6212
ssg6162
(dp6213
g6185
I00
sg6186
VNo default provided.
p6214
sg6188
I00
sg6189
I00
sg6190
V__nodoc__
p6215
sg6192
I00
sg6193
Vinteger
p6216
ssg6165
(dp6217
g6204
Vto_one
p6218
sg6185
I01
sg6186
VNo default provided.
p6219
sg6188
I00
sg6189
I01
sg6190
V__nodoc__
p6220
sg6192
I00
sg6193
Vrelated
p6221
ssg6169
(dp6222
g6204
Vto_one
p6223
sg6185
I00
sg6186
VNo default provided.
p6224
sg6188
I00
sg6189
I00
sg6190
V__nodoc__
p6225
sg6192
I00
sg6193
Vrelated
p6226
ssg6173
(dp6227
g6204
Vto_one
p6228
sg6185
I00
sg6186
VNo default provided.
p6229
sg6188
I00
sg6189
I00
sg6190
V__nodoc__
p6230
sg6192
I00
sg6193
Vrelated
p6231
ssg6177
(dp6232
g6185
I00
sg6186
VNo default provided.
p6233
sg6188
I00
sg6189
I00
sg6190
V__nodoc__
p6234
sg6192
I00
sg6193
Vinteger
p6235
sssg101
V/api/v1/qrsstatus/
p6236
sVdefault_format
p6237
Vapplication/json
p6238
sVdefault_limit
p6239
I20
sVallowed_list_http_methods
p6240
(lp6241
Vget
p6242
ass.